
bench.RISCV_GEM5:     file format elf64-littleriscv


Disassembly of section .text:

00000000000100b0 <main>:
   100b0:	1141                	addi	sp,sp,-16
   100b2:	4581                	li	a1,0
   100b4:	4501                	li	a0,0
   100b6:	e406                	sd	ra,8(sp)
   100b8:	02b020ef          	jal	ra,128e2 <m5_dump_reset_stats>
   100bc:	3e800513          	li	a0,1000
   100c0:	0b4000ef          	jal	ra,10174 <loop>
   100c4:	4501                	li	a0,0
   100c6:	4581                	li	a1,0
   100c8:	01b020ef          	jal	ra,128e2 <m5_dump_reset_stats>
   100cc:	60a2                	ld	ra,8(sp)
   100ce:	4501                	li	a0,0
   100d0:	0141                	addi	sp,sp,16
   100d2:	8082                	ret

00000000000100d4 <register_fini>:
   100d4:	00000793          	li	a5,0
   100d8:	c791                	beqz	a5,100e4 <register_fini+0x10>
   100da:	654d                	lui	a0,0x13
   100dc:	b2c50513          	addi	a0,a0,-1236 # 12b2c <__libc_fini_array>
   100e0:	2430206f          	j	12b22 <atexit>
   100e4:	8082                	ret

00000000000100e6 <_start>:
   100e6:	00005197          	auipc	gp,0x5
   100ea:	a8218193          	addi	gp,gp,-1406 # 14b68 <__global_pointer$>
   100ee:	81818513          	addi	a0,gp,-2024 # 14380 <completed.1>
   100f2:	00024617          	auipc	a2,0x24
   100f6:	cc660613          	addi	a2,a2,-826 # 33db8 <__BSS_END__>
   100fa:	8e09                	sub	a2,a2,a0
   100fc:	4581                	li	a1,0
   100fe:	0b7020ef          	jal	ra,129b4 <memset>
   10102:	00003517          	auipc	a0,0x3
   10106:	a2050513          	addi	a0,a0,-1504 # 12b22 <atexit>
   1010a:	c519                	beqz	a0,10118 <_start+0x32>
   1010c:	00003517          	auipc	a0,0x3
   10110:	a2050513          	addi	a0,a0,-1504 # 12b2c <__libc_fini_array>
   10114:	20f020ef          	jal	ra,12b22 <atexit>
   10118:	033020ef          	jal	ra,1294a <__libc_init_array>
   1011c:	4502                	lw	a0,0(sp)
   1011e:	002c                	addi	a1,sp,8
   10120:	4601                	li	a2,0
   10122:	f8fff0ef          	jal	ra,100b0 <main>
   10126:	0050206f          	j	1292a <exit>

000000000001012a <__do_global_dtors_aux>:
   1012a:	1141                	addi	sp,sp,-16
   1012c:	e022                	sd	s0,0(sp)
   1012e:	8181c783          	lbu	a5,-2024(gp) # 14380 <completed.1>
   10132:	e406                	sd	ra,8(sp)
   10134:	ef91                	bnez	a5,10150 <__do_global_dtors_aux+0x26>
   10136:	00000793          	li	a5,0
   1013a:	cb81                	beqz	a5,1014a <__do_global_dtors_aux+0x20>
   1013c:	6551                	lui	a0,0x14
   1013e:	c0050513          	addi	a0,a0,-1024 # 13c00 <__FRAME_END__>
   10142:	00000097          	auipc	ra,0x0
   10146:	000000e7          	jalr	zero # 0 <main-0x100b0>
   1014a:	4785                	li	a5,1
   1014c:	80f18c23          	sb	a5,-2024(gp) # 14380 <completed.1>
   10150:	60a2                	ld	ra,8(sp)
   10152:	6402                	ld	s0,0(sp)
   10154:	0141                	addi	sp,sp,16
   10156:	8082                	ret

0000000000010158 <frame_dummy>:
   10158:	00000793          	li	a5,0
   1015c:	cb99                	beqz	a5,10172 <frame_dummy+0x1a>
   1015e:	65d1                	lui	a1,0x14
   10160:	6551                	lui	a0,0x14
   10162:	38858593          	addi	a1,a1,904 # 14388 <object.0>
   10166:	c0050513          	addi	a0,a0,-1024 # 13c00 <__FRAME_END__>
   1016a:	00000317          	auipc	t1,0x0
   1016e:	00000067          	jr	zero # 0 <main-0x100b0>
   10172:	8082                	ret

0000000000010174 <loop>:
   10174:	00d4823b          	addw	tp,s1,a3
   10178:	00d4823b          	addw	tp,s1,a3
   1017c:	00d4823b          	addw	tp,s1,a3
   10180:	00d4823b          	addw	tp,s1,a3
   10184:	00d4823b          	addw	tp,s1,a3
   10188:	00d4823b          	addw	tp,s1,a3
   1018c:	00d4823b          	addw	tp,s1,a3
   10190:	00d4823b          	addw	tp,s1,a3
   10194:	00d4823b          	addw	tp,s1,a3
   10198:	00d4823b          	addw	tp,s1,a3
   1019c:	00d4823b          	addw	tp,s1,a3
   101a0:	00d4823b          	addw	tp,s1,a3
   101a4:	00d4823b          	addw	tp,s1,a3
   101a8:	00d4823b          	addw	tp,s1,a3
   101ac:	00d4823b          	addw	tp,s1,a3
   101b0:	00d4823b          	addw	tp,s1,a3
   101b4:	00d4823b          	addw	tp,s1,a3
   101b8:	00d4823b          	addw	tp,s1,a3
   101bc:	00d4823b          	addw	tp,s1,a3
   101c0:	00d4823b          	addw	tp,s1,a3
   101c4:	00d4823b          	addw	tp,s1,a3
   101c8:	00d4823b          	addw	tp,s1,a3
   101cc:	00d4823b          	addw	tp,s1,a3
   101d0:	00d4823b          	addw	tp,s1,a3
   101d4:	00d4823b          	addw	tp,s1,a3
   101d8:	00d4823b          	addw	tp,s1,a3
   101dc:	00d4823b          	addw	tp,s1,a3
   101e0:	00d4823b          	addw	tp,s1,a3
   101e4:	00d4823b          	addw	tp,s1,a3
   101e8:	00d4823b          	addw	tp,s1,a3
   101ec:	00d4823b          	addw	tp,s1,a3
   101f0:	00d4823b          	addw	tp,s1,a3
   101f4:	00d4823b          	addw	tp,s1,a3
   101f8:	00d4823b          	addw	tp,s1,a3
   101fc:	00d4823b          	addw	tp,s1,a3
   10200:	00d4823b          	addw	tp,s1,a3
   10204:	00d4823b          	addw	tp,s1,a3
   10208:	00d4823b          	addw	tp,s1,a3
   1020c:	00d4823b          	addw	tp,s1,a3
   10210:	00d4823b          	addw	tp,s1,a3
   10214:	00d4823b          	addw	tp,s1,a3
   10218:	00d4823b          	addw	tp,s1,a3
   1021c:	00d4823b          	addw	tp,s1,a3
   10220:	00d4823b          	addw	tp,s1,a3
   10224:	00d4823b          	addw	tp,s1,a3
   10228:	00d4823b          	addw	tp,s1,a3
   1022c:	00d4823b          	addw	tp,s1,a3
   10230:	00d4823b          	addw	tp,s1,a3
   10234:	00d4823b          	addw	tp,s1,a3
   10238:	00d4823b          	addw	tp,s1,a3
   1023c:	00d4823b          	addw	tp,s1,a3
   10240:	00d4823b          	addw	tp,s1,a3
   10244:	00d4823b          	addw	tp,s1,a3
   10248:	00d4823b          	addw	tp,s1,a3
   1024c:	00d4823b          	addw	tp,s1,a3
   10250:	00d4823b          	addw	tp,s1,a3
   10254:	00d4823b          	addw	tp,s1,a3
   10258:	00d4823b          	addw	tp,s1,a3
   1025c:	00d4823b          	addw	tp,s1,a3
   10260:	00d4823b          	addw	tp,s1,a3
   10264:	00d4823b          	addw	tp,s1,a3
   10268:	00d4823b          	addw	tp,s1,a3
   1026c:	00d4823b          	addw	tp,s1,a3
   10270:	00d4823b          	addw	tp,s1,a3
   10274:	00d4823b          	addw	tp,s1,a3
   10278:	00d4823b          	addw	tp,s1,a3
   1027c:	00d4823b          	addw	tp,s1,a3
   10280:	00d4823b          	addw	tp,s1,a3
   10284:	00d4823b          	addw	tp,s1,a3
   10288:	00d4823b          	addw	tp,s1,a3
   1028c:	00d4823b          	addw	tp,s1,a3
   10290:	00d4823b          	addw	tp,s1,a3
   10294:	00d4823b          	addw	tp,s1,a3
   10298:	00d4823b          	addw	tp,s1,a3
   1029c:	00d4823b          	addw	tp,s1,a3
   102a0:	00d4823b          	addw	tp,s1,a3
   102a4:	00d4823b          	addw	tp,s1,a3
   102a8:	00d4823b          	addw	tp,s1,a3
   102ac:	00d4823b          	addw	tp,s1,a3
   102b0:	00d4823b          	addw	tp,s1,a3
   102b4:	00d4823b          	addw	tp,s1,a3
   102b8:	00d4823b          	addw	tp,s1,a3
   102bc:	00d4823b          	addw	tp,s1,a3
   102c0:	00d4823b          	addw	tp,s1,a3
   102c4:	00d4823b          	addw	tp,s1,a3
   102c8:	00d4823b          	addw	tp,s1,a3
   102cc:	00d4823b          	addw	tp,s1,a3
   102d0:	00d4823b          	addw	tp,s1,a3
   102d4:	00d4823b          	addw	tp,s1,a3
   102d8:	00d4823b          	addw	tp,s1,a3
   102dc:	00d4823b          	addw	tp,s1,a3
   102e0:	00d4823b          	addw	tp,s1,a3
   102e4:	00d4823b          	addw	tp,s1,a3
   102e8:	00d4823b          	addw	tp,s1,a3
   102ec:	00d4823b          	addw	tp,s1,a3
   102f0:	00d4823b          	addw	tp,s1,a3
   102f4:	00d4823b          	addw	tp,s1,a3
   102f8:	00d4823b          	addw	tp,s1,a3
   102fc:	00d4823b          	addw	tp,s1,a3
   10300:	00d4823b          	addw	tp,s1,a3
   10304:	00d4823b          	addw	tp,s1,a3
   10308:	00d4823b          	addw	tp,s1,a3
   1030c:	00d4823b          	addw	tp,s1,a3
   10310:	00d4823b          	addw	tp,s1,a3
   10314:	00d4823b          	addw	tp,s1,a3
   10318:	00d4823b          	addw	tp,s1,a3
   1031c:	00d4823b          	addw	tp,s1,a3
   10320:	00d4823b          	addw	tp,s1,a3
   10324:	00d4823b          	addw	tp,s1,a3
   10328:	00d4823b          	addw	tp,s1,a3
   1032c:	00d4823b          	addw	tp,s1,a3
   10330:	00d4823b          	addw	tp,s1,a3
   10334:	00d4823b          	addw	tp,s1,a3
   10338:	00d4823b          	addw	tp,s1,a3
   1033c:	00d4823b          	addw	tp,s1,a3
   10340:	00d4823b          	addw	tp,s1,a3
   10344:	00d4823b          	addw	tp,s1,a3
   10348:	00d4823b          	addw	tp,s1,a3
   1034c:	00d4823b          	addw	tp,s1,a3
   10350:	00d4823b          	addw	tp,s1,a3
   10354:	00d4823b          	addw	tp,s1,a3
   10358:	00d4823b          	addw	tp,s1,a3
   1035c:	00d4823b          	addw	tp,s1,a3
   10360:	00d4823b          	addw	tp,s1,a3
   10364:	00d4823b          	addw	tp,s1,a3
   10368:	00d4823b          	addw	tp,s1,a3
   1036c:	00d4823b          	addw	tp,s1,a3
   10370:	00d4823b          	addw	tp,s1,a3
   10374:	00d4823b          	addw	tp,s1,a3
   10378:	00d4823b          	addw	tp,s1,a3
   1037c:	00d4823b          	addw	tp,s1,a3
   10380:	00d4823b          	addw	tp,s1,a3
   10384:	00d4823b          	addw	tp,s1,a3
   10388:	00d4823b          	addw	tp,s1,a3
   1038c:	00d4823b          	addw	tp,s1,a3
   10390:	00d4823b          	addw	tp,s1,a3
   10394:	00d4823b          	addw	tp,s1,a3
   10398:	00d4823b          	addw	tp,s1,a3
   1039c:	00d4823b          	addw	tp,s1,a3
   103a0:	00d4823b          	addw	tp,s1,a3
   103a4:	00d4823b          	addw	tp,s1,a3
   103a8:	00d4823b          	addw	tp,s1,a3
   103ac:	00d4823b          	addw	tp,s1,a3
   103b0:	00d4823b          	addw	tp,s1,a3
   103b4:	00d4823b          	addw	tp,s1,a3
   103b8:	00d4823b          	addw	tp,s1,a3
   103bc:	00d4823b          	addw	tp,s1,a3
   103c0:	00d4823b          	addw	tp,s1,a3
   103c4:	00d4823b          	addw	tp,s1,a3
   103c8:	00d4823b          	addw	tp,s1,a3
   103cc:	00d4823b          	addw	tp,s1,a3
   103d0:	00d4823b          	addw	tp,s1,a3
   103d4:	00d4823b          	addw	tp,s1,a3
   103d8:	00d4823b          	addw	tp,s1,a3
   103dc:	00d4823b          	addw	tp,s1,a3
   103e0:	00d4823b          	addw	tp,s1,a3
   103e4:	00d4823b          	addw	tp,s1,a3
   103e8:	00d4823b          	addw	tp,s1,a3
   103ec:	00d4823b          	addw	tp,s1,a3
   103f0:	00d4823b          	addw	tp,s1,a3
   103f4:	00d4823b          	addw	tp,s1,a3
   103f8:	00d4823b          	addw	tp,s1,a3
   103fc:	00d4823b          	addw	tp,s1,a3
   10400:	00d4823b          	addw	tp,s1,a3
   10404:	00d4823b          	addw	tp,s1,a3
   10408:	00d4823b          	addw	tp,s1,a3
   1040c:	00d4823b          	addw	tp,s1,a3
   10410:	00d4823b          	addw	tp,s1,a3
   10414:	00d4823b          	addw	tp,s1,a3
   10418:	00d4823b          	addw	tp,s1,a3
   1041c:	00d4823b          	addw	tp,s1,a3
   10420:	00d4823b          	addw	tp,s1,a3
   10424:	00d4823b          	addw	tp,s1,a3
   10428:	00d4823b          	addw	tp,s1,a3
   1042c:	00d4823b          	addw	tp,s1,a3
   10430:	00d4823b          	addw	tp,s1,a3
   10434:	00d4823b          	addw	tp,s1,a3
   10438:	00d4823b          	addw	tp,s1,a3
   1043c:	00d4823b          	addw	tp,s1,a3
   10440:	00d4823b          	addw	tp,s1,a3
   10444:	00d4823b          	addw	tp,s1,a3
   10448:	00d4823b          	addw	tp,s1,a3
   1044c:	00d4823b          	addw	tp,s1,a3
   10450:	00d4823b          	addw	tp,s1,a3
   10454:	00d4823b          	addw	tp,s1,a3
   10458:	00d4823b          	addw	tp,s1,a3
   1045c:	00d4823b          	addw	tp,s1,a3
   10460:	00d4823b          	addw	tp,s1,a3
   10464:	00d4823b          	addw	tp,s1,a3
   10468:	00d4823b          	addw	tp,s1,a3
   1046c:	00d4823b          	addw	tp,s1,a3
   10470:	00d4823b          	addw	tp,s1,a3
   10474:	00d4823b          	addw	tp,s1,a3
   10478:	00d4823b          	addw	tp,s1,a3
   1047c:	00d4823b          	addw	tp,s1,a3
   10480:	00d4823b          	addw	tp,s1,a3
   10484:	00d4823b          	addw	tp,s1,a3
   10488:	00d4823b          	addw	tp,s1,a3
   1048c:	00d4823b          	addw	tp,s1,a3
   10490:	00d4823b          	addw	tp,s1,a3
   10494:	00d4823b          	addw	tp,s1,a3
   10498:	00d4823b          	addw	tp,s1,a3
   1049c:	00d4823b          	addw	tp,s1,a3
   104a0:	00d4823b          	addw	tp,s1,a3
   104a4:	00d4823b          	addw	tp,s1,a3
   104a8:	00d4823b          	addw	tp,s1,a3
   104ac:	00d4823b          	addw	tp,s1,a3
   104b0:	00d4823b          	addw	tp,s1,a3
   104b4:	00d4823b          	addw	tp,s1,a3
   104b8:	00d4823b          	addw	tp,s1,a3
   104bc:	00d4823b          	addw	tp,s1,a3
   104c0:	00d4823b          	addw	tp,s1,a3
   104c4:	00d4823b          	addw	tp,s1,a3
   104c8:	00d4823b          	addw	tp,s1,a3
   104cc:	00d4823b          	addw	tp,s1,a3
   104d0:	00d4823b          	addw	tp,s1,a3
   104d4:	00d4823b          	addw	tp,s1,a3
   104d8:	00d4823b          	addw	tp,s1,a3
   104dc:	00d4823b          	addw	tp,s1,a3
   104e0:	00d4823b          	addw	tp,s1,a3
   104e4:	00d4823b          	addw	tp,s1,a3
   104e8:	00d4823b          	addw	tp,s1,a3
   104ec:	00d4823b          	addw	tp,s1,a3
   104f0:	00d4823b          	addw	tp,s1,a3
   104f4:	00d4823b          	addw	tp,s1,a3
   104f8:	00d4823b          	addw	tp,s1,a3
   104fc:	00d4823b          	addw	tp,s1,a3
   10500:	00d4823b          	addw	tp,s1,a3
   10504:	00d4823b          	addw	tp,s1,a3
   10508:	00d4823b          	addw	tp,s1,a3
   1050c:	00d4823b          	addw	tp,s1,a3
   10510:	00d4823b          	addw	tp,s1,a3
   10514:	00d4823b          	addw	tp,s1,a3
   10518:	00d4823b          	addw	tp,s1,a3
   1051c:	00d4823b          	addw	tp,s1,a3
   10520:	00d4823b          	addw	tp,s1,a3
   10524:	00d4823b          	addw	tp,s1,a3
   10528:	00d4823b          	addw	tp,s1,a3
   1052c:	00d4823b          	addw	tp,s1,a3
   10530:	00d4823b          	addw	tp,s1,a3
   10534:	00d4823b          	addw	tp,s1,a3
   10538:	00d4823b          	addw	tp,s1,a3
   1053c:	00d4823b          	addw	tp,s1,a3
   10540:	00d4823b          	addw	tp,s1,a3
   10544:	00d4823b          	addw	tp,s1,a3
   10548:	00d4823b          	addw	tp,s1,a3
   1054c:	00d4823b          	addw	tp,s1,a3
   10550:	00d4823b          	addw	tp,s1,a3
   10554:	00d4823b          	addw	tp,s1,a3
   10558:	00d4823b          	addw	tp,s1,a3
   1055c:	00d4823b          	addw	tp,s1,a3
   10560:	00d4823b          	addw	tp,s1,a3
   10564:	00d4823b          	addw	tp,s1,a3
   10568:	00d4823b          	addw	tp,s1,a3
   1056c:	00d4823b          	addw	tp,s1,a3
   10570:	00d4823b          	addw	tp,s1,a3
   10574:	00d4823b          	addw	tp,s1,a3
   10578:	00d4823b          	addw	tp,s1,a3
   1057c:	00d4823b          	addw	tp,s1,a3
   10580:	00d4823b          	addw	tp,s1,a3
   10584:	00d4823b          	addw	tp,s1,a3
   10588:	00d4823b          	addw	tp,s1,a3
   1058c:	00d4823b          	addw	tp,s1,a3
   10590:	00d4823b          	addw	tp,s1,a3
   10594:	00d4823b          	addw	tp,s1,a3
   10598:	00d4823b          	addw	tp,s1,a3
   1059c:	00d4823b          	addw	tp,s1,a3
   105a0:	00d4823b          	addw	tp,s1,a3
   105a4:	00d4823b          	addw	tp,s1,a3
   105a8:	00d4823b          	addw	tp,s1,a3
   105ac:	00d4823b          	addw	tp,s1,a3
   105b0:	00d4823b          	addw	tp,s1,a3
   105b4:	00d4823b          	addw	tp,s1,a3
   105b8:	00d4823b          	addw	tp,s1,a3
   105bc:	00d4823b          	addw	tp,s1,a3
   105c0:	00d4823b          	addw	tp,s1,a3
   105c4:	00d4823b          	addw	tp,s1,a3
   105c8:	00d4823b          	addw	tp,s1,a3
   105cc:	00d4823b          	addw	tp,s1,a3
   105d0:	00d4823b          	addw	tp,s1,a3
   105d4:	00d4823b          	addw	tp,s1,a3
   105d8:	00d4823b          	addw	tp,s1,a3
   105dc:	00d4823b          	addw	tp,s1,a3
   105e0:	00d4823b          	addw	tp,s1,a3
   105e4:	00d4823b          	addw	tp,s1,a3
   105e8:	00d4823b          	addw	tp,s1,a3
   105ec:	00d4823b          	addw	tp,s1,a3
   105f0:	00d4823b          	addw	tp,s1,a3
   105f4:	00d4823b          	addw	tp,s1,a3
   105f8:	00d4823b          	addw	tp,s1,a3
   105fc:	00d4823b          	addw	tp,s1,a3
   10600:	00d4823b          	addw	tp,s1,a3
   10604:	00d4823b          	addw	tp,s1,a3
   10608:	00d4823b          	addw	tp,s1,a3
   1060c:	00d4823b          	addw	tp,s1,a3
   10610:	00d4823b          	addw	tp,s1,a3
   10614:	00d4823b          	addw	tp,s1,a3
   10618:	00d4823b          	addw	tp,s1,a3
   1061c:	00d4823b          	addw	tp,s1,a3
   10620:	00d4823b          	addw	tp,s1,a3
   10624:	00d4823b          	addw	tp,s1,a3
   10628:	00d4823b          	addw	tp,s1,a3
   1062c:	00d4823b          	addw	tp,s1,a3
   10630:	00d4823b          	addw	tp,s1,a3
   10634:	00d4823b          	addw	tp,s1,a3
   10638:	00d4823b          	addw	tp,s1,a3
   1063c:	00d4823b          	addw	tp,s1,a3
   10640:	00d4823b          	addw	tp,s1,a3
   10644:	00d4823b          	addw	tp,s1,a3
   10648:	00d4823b          	addw	tp,s1,a3
   1064c:	00d4823b          	addw	tp,s1,a3
   10650:	00d4823b          	addw	tp,s1,a3
   10654:	00d4823b          	addw	tp,s1,a3
   10658:	00d4823b          	addw	tp,s1,a3
   1065c:	00d4823b          	addw	tp,s1,a3
   10660:	00d4823b          	addw	tp,s1,a3
   10664:	00d4823b          	addw	tp,s1,a3
   10668:	00d4823b          	addw	tp,s1,a3
   1066c:	00d4823b          	addw	tp,s1,a3
   10670:	00d4823b          	addw	tp,s1,a3
   10674:	00d4823b          	addw	tp,s1,a3
   10678:	00d4823b          	addw	tp,s1,a3
   1067c:	00d4823b          	addw	tp,s1,a3
   10680:	00d4823b          	addw	tp,s1,a3
   10684:	00d4823b          	addw	tp,s1,a3
   10688:	00d4823b          	addw	tp,s1,a3
   1068c:	00d4823b          	addw	tp,s1,a3
   10690:	00d4823b          	addw	tp,s1,a3
   10694:	00d4823b          	addw	tp,s1,a3
   10698:	00d4823b          	addw	tp,s1,a3
   1069c:	00d4823b          	addw	tp,s1,a3
   106a0:	00d4823b          	addw	tp,s1,a3
   106a4:	00d4823b          	addw	tp,s1,a3
   106a8:	00d4823b          	addw	tp,s1,a3
   106ac:	00d4823b          	addw	tp,s1,a3
   106b0:	00d4823b          	addw	tp,s1,a3
   106b4:	00d4823b          	addw	tp,s1,a3
   106b8:	00d4823b          	addw	tp,s1,a3
   106bc:	00d4823b          	addw	tp,s1,a3
   106c0:	00d4823b          	addw	tp,s1,a3
   106c4:	00d4823b          	addw	tp,s1,a3
   106c8:	00d4823b          	addw	tp,s1,a3
   106cc:	00d4823b          	addw	tp,s1,a3
   106d0:	00d4823b          	addw	tp,s1,a3
   106d4:	00d4823b          	addw	tp,s1,a3
   106d8:	00d4823b          	addw	tp,s1,a3
   106dc:	00d4823b          	addw	tp,s1,a3
   106e0:	00d4823b          	addw	tp,s1,a3
   106e4:	00d4823b          	addw	tp,s1,a3
   106e8:	00d4823b          	addw	tp,s1,a3
   106ec:	00d4823b          	addw	tp,s1,a3
   106f0:	00d4823b          	addw	tp,s1,a3
   106f4:	00d4823b          	addw	tp,s1,a3
   106f8:	00d4823b          	addw	tp,s1,a3
   106fc:	00d4823b          	addw	tp,s1,a3
   10700:	00d4823b          	addw	tp,s1,a3
   10704:	00d4823b          	addw	tp,s1,a3
   10708:	00d4823b          	addw	tp,s1,a3
   1070c:	00d4823b          	addw	tp,s1,a3
   10710:	00d4823b          	addw	tp,s1,a3
   10714:	00d4823b          	addw	tp,s1,a3
   10718:	00d4823b          	addw	tp,s1,a3
   1071c:	00d4823b          	addw	tp,s1,a3
   10720:	00d4823b          	addw	tp,s1,a3
   10724:	00d4823b          	addw	tp,s1,a3
   10728:	00d4823b          	addw	tp,s1,a3
   1072c:	00d4823b          	addw	tp,s1,a3
   10730:	00d4823b          	addw	tp,s1,a3
   10734:	00d4823b          	addw	tp,s1,a3
   10738:	00d4823b          	addw	tp,s1,a3
   1073c:	00d4823b          	addw	tp,s1,a3
   10740:	00d4823b          	addw	tp,s1,a3
   10744:	00d4823b          	addw	tp,s1,a3
   10748:	00d4823b          	addw	tp,s1,a3
   1074c:	00d4823b          	addw	tp,s1,a3
   10750:	00d4823b          	addw	tp,s1,a3
   10754:	00d4823b          	addw	tp,s1,a3
   10758:	00d4823b          	addw	tp,s1,a3
   1075c:	00d4823b          	addw	tp,s1,a3
   10760:	00d4823b          	addw	tp,s1,a3
   10764:	00d4823b          	addw	tp,s1,a3
   10768:	00d4823b          	addw	tp,s1,a3
   1076c:	00d4823b          	addw	tp,s1,a3
   10770:	00d4823b          	addw	tp,s1,a3
   10774:	00d4823b          	addw	tp,s1,a3
   10778:	00d4823b          	addw	tp,s1,a3
   1077c:	00d4823b          	addw	tp,s1,a3
   10780:	00d4823b          	addw	tp,s1,a3
   10784:	00d4823b          	addw	tp,s1,a3
   10788:	00d4823b          	addw	tp,s1,a3
   1078c:	00d4823b          	addw	tp,s1,a3
   10790:	00d4823b          	addw	tp,s1,a3
   10794:	00d4823b          	addw	tp,s1,a3
   10798:	00d4823b          	addw	tp,s1,a3
   1079c:	00d4823b          	addw	tp,s1,a3
   107a0:	00d4823b          	addw	tp,s1,a3
   107a4:	00d4823b          	addw	tp,s1,a3
   107a8:	00d4823b          	addw	tp,s1,a3
   107ac:	00d4823b          	addw	tp,s1,a3
   107b0:	00d4823b          	addw	tp,s1,a3
   107b4:	00d4823b          	addw	tp,s1,a3
   107b8:	00d4823b          	addw	tp,s1,a3
   107bc:	00d4823b          	addw	tp,s1,a3
   107c0:	00d4823b          	addw	tp,s1,a3
   107c4:	00d4823b          	addw	tp,s1,a3
   107c8:	00d4823b          	addw	tp,s1,a3
   107cc:	00d4823b          	addw	tp,s1,a3
   107d0:	00d4823b          	addw	tp,s1,a3
   107d4:	00d4823b          	addw	tp,s1,a3
   107d8:	00d4823b          	addw	tp,s1,a3
   107dc:	00d4823b          	addw	tp,s1,a3
   107e0:	00d4823b          	addw	tp,s1,a3
   107e4:	00d4823b          	addw	tp,s1,a3
   107e8:	00d4823b          	addw	tp,s1,a3
   107ec:	00d4823b          	addw	tp,s1,a3
   107f0:	00d4823b          	addw	tp,s1,a3
   107f4:	00d4823b          	addw	tp,s1,a3
   107f8:	00d4823b          	addw	tp,s1,a3
   107fc:	00d4823b          	addw	tp,s1,a3
   10800:	00d4823b          	addw	tp,s1,a3
   10804:	00d4823b          	addw	tp,s1,a3
   10808:	00d4823b          	addw	tp,s1,a3
   1080c:	00d4823b          	addw	tp,s1,a3
   10810:	00d4823b          	addw	tp,s1,a3
   10814:	00d4823b          	addw	tp,s1,a3
   10818:	00d4823b          	addw	tp,s1,a3
   1081c:	00d4823b          	addw	tp,s1,a3
   10820:	00d4823b          	addw	tp,s1,a3
   10824:	00d4823b          	addw	tp,s1,a3
   10828:	00d4823b          	addw	tp,s1,a3
   1082c:	00d4823b          	addw	tp,s1,a3
   10830:	00d4823b          	addw	tp,s1,a3
   10834:	00d4823b          	addw	tp,s1,a3
   10838:	00d4823b          	addw	tp,s1,a3
   1083c:	00d4823b          	addw	tp,s1,a3
   10840:	00d4823b          	addw	tp,s1,a3
   10844:	00d4823b          	addw	tp,s1,a3
   10848:	00d4823b          	addw	tp,s1,a3
   1084c:	00d4823b          	addw	tp,s1,a3
   10850:	00d4823b          	addw	tp,s1,a3
   10854:	00d4823b          	addw	tp,s1,a3
   10858:	00d4823b          	addw	tp,s1,a3
   1085c:	00d4823b          	addw	tp,s1,a3
   10860:	00d4823b          	addw	tp,s1,a3
   10864:	00d4823b          	addw	tp,s1,a3
   10868:	00d4823b          	addw	tp,s1,a3
   1086c:	00d4823b          	addw	tp,s1,a3
   10870:	00d4823b          	addw	tp,s1,a3
   10874:	00d4823b          	addw	tp,s1,a3
   10878:	00d4823b          	addw	tp,s1,a3
   1087c:	00d4823b          	addw	tp,s1,a3
   10880:	00d4823b          	addw	tp,s1,a3
   10884:	00d4823b          	addw	tp,s1,a3
   10888:	00d4823b          	addw	tp,s1,a3
   1088c:	00d4823b          	addw	tp,s1,a3
   10890:	00d4823b          	addw	tp,s1,a3
   10894:	00d4823b          	addw	tp,s1,a3
   10898:	00d4823b          	addw	tp,s1,a3
   1089c:	00d4823b          	addw	tp,s1,a3
   108a0:	00d4823b          	addw	tp,s1,a3
   108a4:	00d4823b          	addw	tp,s1,a3
   108a8:	00d4823b          	addw	tp,s1,a3
   108ac:	00d4823b          	addw	tp,s1,a3
   108b0:	00d4823b          	addw	tp,s1,a3
   108b4:	00d4823b          	addw	tp,s1,a3
   108b8:	00d4823b          	addw	tp,s1,a3
   108bc:	00d4823b          	addw	tp,s1,a3
   108c0:	00d4823b          	addw	tp,s1,a3
   108c4:	00d4823b          	addw	tp,s1,a3
   108c8:	00d4823b          	addw	tp,s1,a3
   108cc:	00d4823b          	addw	tp,s1,a3
   108d0:	00d4823b          	addw	tp,s1,a3
   108d4:	00d4823b          	addw	tp,s1,a3
   108d8:	00d4823b          	addw	tp,s1,a3
   108dc:	00d4823b          	addw	tp,s1,a3
   108e0:	00d4823b          	addw	tp,s1,a3
   108e4:	00d4823b          	addw	tp,s1,a3
   108e8:	00d4823b          	addw	tp,s1,a3
   108ec:	00d4823b          	addw	tp,s1,a3
   108f0:	00d4823b          	addw	tp,s1,a3
   108f4:	00d4823b          	addw	tp,s1,a3
   108f8:	00d4823b          	addw	tp,s1,a3
   108fc:	00d4823b          	addw	tp,s1,a3
   10900:	00d4823b          	addw	tp,s1,a3
   10904:	00d4823b          	addw	tp,s1,a3
   10908:	00d4823b          	addw	tp,s1,a3
   1090c:	00d4823b          	addw	tp,s1,a3
   10910:	00d4823b          	addw	tp,s1,a3
   10914:	00d4823b          	addw	tp,s1,a3
   10918:	00d4823b          	addw	tp,s1,a3
   1091c:	00d4823b          	addw	tp,s1,a3
   10920:	00d4823b          	addw	tp,s1,a3
   10924:	00d4823b          	addw	tp,s1,a3
   10928:	00d4823b          	addw	tp,s1,a3
   1092c:	00d4823b          	addw	tp,s1,a3
   10930:	00d4823b          	addw	tp,s1,a3
   10934:	00d4823b          	addw	tp,s1,a3
   10938:	00d4823b          	addw	tp,s1,a3
   1093c:	00d4823b          	addw	tp,s1,a3
   10940:	00d4823b          	addw	tp,s1,a3
   10944:	00d4823b          	addw	tp,s1,a3
   10948:	00d4823b          	addw	tp,s1,a3
   1094c:	00d4823b          	addw	tp,s1,a3
   10950:	00d4823b          	addw	tp,s1,a3
   10954:	00d4823b          	addw	tp,s1,a3
   10958:	00d4823b          	addw	tp,s1,a3
   1095c:	00d4823b          	addw	tp,s1,a3
   10960:	00d4823b          	addw	tp,s1,a3
   10964:	00d4823b          	addw	tp,s1,a3
   10968:	00d4823b          	addw	tp,s1,a3
   1096c:	00d4823b          	addw	tp,s1,a3
   10970:	00d4823b          	addw	tp,s1,a3
   10974:	00d4823b          	addw	tp,s1,a3
   10978:	00d4823b          	addw	tp,s1,a3
   1097c:	00d4823b          	addw	tp,s1,a3
   10980:	00d4823b          	addw	tp,s1,a3
   10984:	00d4823b          	addw	tp,s1,a3
   10988:	00d4823b          	addw	tp,s1,a3
   1098c:	00d4823b          	addw	tp,s1,a3
   10990:	00d4823b          	addw	tp,s1,a3
   10994:	00d4823b          	addw	tp,s1,a3
   10998:	00d4823b          	addw	tp,s1,a3
   1099c:	00d4823b          	addw	tp,s1,a3
   109a0:	00d4823b          	addw	tp,s1,a3
   109a4:	00d4823b          	addw	tp,s1,a3
   109a8:	00d4823b          	addw	tp,s1,a3
   109ac:	00d4823b          	addw	tp,s1,a3
   109b0:	00d4823b          	addw	tp,s1,a3
   109b4:	00d4823b          	addw	tp,s1,a3
   109b8:	00d4823b          	addw	tp,s1,a3
   109bc:	00d4823b          	addw	tp,s1,a3
   109c0:	00d4823b          	addw	tp,s1,a3
   109c4:	00d4823b          	addw	tp,s1,a3
   109c8:	00d4823b          	addw	tp,s1,a3
   109cc:	00d4823b          	addw	tp,s1,a3
   109d0:	00d4823b          	addw	tp,s1,a3
   109d4:	00d4823b          	addw	tp,s1,a3
   109d8:	00d4823b          	addw	tp,s1,a3
   109dc:	00d4823b          	addw	tp,s1,a3
   109e0:	00d4823b          	addw	tp,s1,a3
   109e4:	00d4823b          	addw	tp,s1,a3
   109e8:	00d4823b          	addw	tp,s1,a3
   109ec:	00d4823b          	addw	tp,s1,a3
   109f0:	00d4823b          	addw	tp,s1,a3
   109f4:	00d4823b          	addw	tp,s1,a3
   109f8:	00d4823b          	addw	tp,s1,a3
   109fc:	00d4823b          	addw	tp,s1,a3
   10a00:	00d4823b          	addw	tp,s1,a3
   10a04:	00d4823b          	addw	tp,s1,a3
   10a08:	00d4823b          	addw	tp,s1,a3
   10a0c:	00d4823b          	addw	tp,s1,a3
   10a10:	00d4823b          	addw	tp,s1,a3
   10a14:	00d4823b          	addw	tp,s1,a3
   10a18:	00d4823b          	addw	tp,s1,a3
   10a1c:	00d4823b          	addw	tp,s1,a3
   10a20:	00d4823b          	addw	tp,s1,a3
   10a24:	00d4823b          	addw	tp,s1,a3
   10a28:	00d4823b          	addw	tp,s1,a3
   10a2c:	00d4823b          	addw	tp,s1,a3
   10a30:	00d4823b          	addw	tp,s1,a3
   10a34:	00d4823b          	addw	tp,s1,a3
   10a38:	00d4823b          	addw	tp,s1,a3
   10a3c:	00d4823b          	addw	tp,s1,a3
   10a40:	00d4823b          	addw	tp,s1,a3
   10a44:	00d4823b          	addw	tp,s1,a3
   10a48:	00d4823b          	addw	tp,s1,a3
   10a4c:	00d4823b          	addw	tp,s1,a3
   10a50:	00d4823b          	addw	tp,s1,a3
   10a54:	00d4823b          	addw	tp,s1,a3
   10a58:	00d4823b          	addw	tp,s1,a3
   10a5c:	00d4823b          	addw	tp,s1,a3
   10a60:	00d4823b          	addw	tp,s1,a3
   10a64:	00d4823b          	addw	tp,s1,a3
   10a68:	00d4823b          	addw	tp,s1,a3
   10a6c:	00d4823b          	addw	tp,s1,a3
   10a70:	00d4823b          	addw	tp,s1,a3
   10a74:	00d4823b          	addw	tp,s1,a3
   10a78:	00d4823b          	addw	tp,s1,a3
   10a7c:	00d4823b          	addw	tp,s1,a3
   10a80:	00d4823b          	addw	tp,s1,a3
   10a84:	00d4823b          	addw	tp,s1,a3
   10a88:	00d4823b          	addw	tp,s1,a3
   10a8c:	00d4823b          	addw	tp,s1,a3
   10a90:	00d4823b          	addw	tp,s1,a3
   10a94:	00d4823b          	addw	tp,s1,a3
   10a98:	00d4823b          	addw	tp,s1,a3
   10a9c:	00d4823b          	addw	tp,s1,a3
   10aa0:	00d4823b          	addw	tp,s1,a3
   10aa4:	00d4823b          	addw	tp,s1,a3
   10aa8:	00d4823b          	addw	tp,s1,a3
   10aac:	00d4823b          	addw	tp,s1,a3
   10ab0:	00d4823b          	addw	tp,s1,a3
   10ab4:	00d4823b          	addw	tp,s1,a3
   10ab8:	00d4823b          	addw	tp,s1,a3
   10abc:	00d4823b          	addw	tp,s1,a3
   10ac0:	00d4823b          	addw	tp,s1,a3
   10ac4:	00d4823b          	addw	tp,s1,a3
   10ac8:	00d4823b          	addw	tp,s1,a3
   10acc:	00d4823b          	addw	tp,s1,a3
   10ad0:	00d4823b          	addw	tp,s1,a3
   10ad4:	00d4823b          	addw	tp,s1,a3
   10ad8:	00d4823b          	addw	tp,s1,a3
   10adc:	00d4823b          	addw	tp,s1,a3
   10ae0:	00d4823b          	addw	tp,s1,a3
   10ae4:	00d4823b          	addw	tp,s1,a3
   10ae8:	00d4823b          	addw	tp,s1,a3
   10aec:	00d4823b          	addw	tp,s1,a3
   10af0:	00d4823b          	addw	tp,s1,a3
   10af4:	00d4823b          	addw	tp,s1,a3
   10af8:	00d4823b          	addw	tp,s1,a3
   10afc:	00d4823b          	addw	tp,s1,a3
   10b00:	00d4823b          	addw	tp,s1,a3
   10b04:	00d4823b          	addw	tp,s1,a3
   10b08:	00d4823b          	addw	tp,s1,a3
   10b0c:	00d4823b          	addw	tp,s1,a3
   10b10:	00d4823b          	addw	tp,s1,a3
   10b14:	00d4823b          	addw	tp,s1,a3
   10b18:	00d4823b          	addw	tp,s1,a3
   10b1c:	00d4823b          	addw	tp,s1,a3
   10b20:	00d4823b          	addw	tp,s1,a3
   10b24:	00d4823b          	addw	tp,s1,a3
   10b28:	00d4823b          	addw	tp,s1,a3
   10b2c:	00d4823b          	addw	tp,s1,a3
   10b30:	00d4823b          	addw	tp,s1,a3
   10b34:	00d4823b          	addw	tp,s1,a3
   10b38:	00d4823b          	addw	tp,s1,a3
   10b3c:	00d4823b          	addw	tp,s1,a3
   10b40:	00d4823b          	addw	tp,s1,a3
   10b44:	00d4823b          	addw	tp,s1,a3
   10b48:	00d4823b          	addw	tp,s1,a3
   10b4c:	00d4823b          	addw	tp,s1,a3
   10b50:	00d4823b          	addw	tp,s1,a3
   10b54:	00d4823b          	addw	tp,s1,a3
   10b58:	00d4823b          	addw	tp,s1,a3
   10b5c:	00d4823b          	addw	tp,s1,a3
   10b60:	00d4823b          	addw	tp,s1,a3
   10b64:	00d4823b          	addw	tp,s1,a3
   10b68:	00d4823b          	addw	tp,s1,a3
   10b6c:	00d4823b          	addw	tp,s1,a3
   10b70:	00d4823b          	addw	tp,s1,a3
   10b74:	00d4823b          	addw	tp,s1,a3
   10b78:	00d4823b          	addw	tp,s1,a3
   10b7c:	00d4823b          	addw	tp,s1,a3
   10b80:	00d4823b          	addw	tp,s1,a3
   10b84:	00d4823b          	addw	tp,s1,a3
   10b88:	00d4823b          	addw	tp,s1,a3
   10b8c:	00d4823b          	addw	tp,s1,a3
   10b90:	00d4823b          	addw	tp,s1,a3
   10b94:	00d4823b          	addw	tp,s1,a3
   10b98:	00d4823b          	addw	tp,s1,a3
   10b9c:	00d4823b          	addw	tp,s1,a3
   10ba0:	00d4823b          	addw	tp,s1,a3
   10ba4:	00d4823b          	addw	tp,s1,a3
   10ba8:	00d4823b          	addw	tp,s1,a3
   10bac:	00d4823b          	addw	tp,s1,a3
   10bb0:	00d4823b          	addw	tp,s1,a3
   10bb4:	00d4823b          	addw	tp,s1,a3
   10bb8:	00d4823b          	addw	tp,s1,a3
   10bbc:	00d4823b          	addw	tp,s1,a3
   10bc0:	00d4823b          	addw	tp,s1,a3
   10bc4:	00d4823b          	addw	tp,s1,a3
   10bc8:	00d4823b          	addw	tp,s1,a3
   10bcc:	00d4823b          	addw	tp,s1,a3
   10bd0:	00d4823b          	addw	tp,s1,a3
   10bd4:	00d4823b          	addw	tp,s1,a3
   10bd8:	00d4823b          	addw	tp,s1,a3
   10bdc:	00d4823b          	addw	tp,s1,a3
   10be0:	00d4823b          	addw	tp,s1,a3
   10be4:	00d4823b          	addw	tp,s1,a3
   10be8:	00d4823b          	addw	tp,s1,a3
   10bec:	00d4823b          	addw	tp,s1,a3
   10bf0:	00d4823b          	addw	tp,s1,a3
   10bf4:	00d4823b          	addw	tp,s1,a3
   10bf8:	00d4823b          	addw	tp,s1,a3
   10bfc:	00d4823b          	addw	tp,s1,a3
   10c00:	00d4823b          	addw	tp,s1,a3
   10c04:	00d4823b          	addw	tp,s1,a3
   10c08:	00d4823b          	addw	tp,s1,a3
   10c0c:	00d4823b          	addw	tp,s1,a3
   10c10:	00d4823b          	addw	tp,s1,a3
   10c14:	00d4823b          	addw	tp,s1,a3
   10c18:	00d4823b          	addw	tp,s1,a3
   10c1c:	00d4823b          	addw	tp,s1,a3
   10c20:	00d4823b          	addw	tp,s1,a3
   10c24:	00d4823b          	addw	tp,s1,a3
   10c28:	00d4823b          	addw	tp,s1,a3
   10c2c:	00d4823b          	addw	tp,s1,a3
   10c30:	00d4823b          	addw	tp,s1,a3
   10c34:	00d4823b          	addw	tp,s1,a3
   10c38:	00d4823b          	addw	tp,s1,a3
   10c3c:	00d4823b          	addw	tp,s1,a3
   10c40:	00d4823b          	addw	tp,s1,a3
   10c44:	00d4823b          	addw	tp,s1,a3
   10c48:	00d4823b          	addw	tp,s1,a3
   10c4c:	00d4823b          	addw	tp,s1,a3
   10c50:	00d4823b          	addw	tp,s1,a3
   10c54:	00d4823b          	addw	tp,s1,a3
   10c58:	00d4823b          	addw	tp,s1,a3
   10c5c:	00d4823b          	addw	tp,s1,a3
   10c60:	00d4823b          	addw	tp,s1,a3
   10c64:	00d4823b          	addw	tp,s1,a3
   10c68:	00d4823b          	addw	tp,s1,a3
   10c6c:	00d4823b          	addw	tp,s1,a3
   10c70:	00d4823b          	addw	tp,s1,a3
   10c74:	00d4823b          	addw	tp,s1,a3
   10c78:	00d4823b          	addw	tp,s1,a3
   10c7c:	00d4823b          	addw	tp,s1,a3
   10c80:	00d4823b          	addw	tp,s1,a3
   10c84:	00d4823b          	addw	tp,s1,a3
   10c88:	00d4823b          	addw	tp,s1,a3
   10c8c:	00d4823b          	addw	tp,s1,a3
   10c90:	00d4823b          	addw	tp,s1,a3
   10c94:	00d4823b          	addw	tp,s1,a3
   10c98:	00d4823b          	addw	tp,s1,a3
   10c9c:	00d4823b          	addw	tp,s1,a3
   10ca0:	00d4823b          	addw	tp,s1,a3
   10ca4:	00d4823b          	addw	tp,s1,a3
   10ca8:	00d4823b          	addw	tp,s1,a3
   10cac:	00d4823b          	addw	tp,s1,a3
   10cb0:	00d4823b          	addw	tp,s1,a3
   10cb4:	00d4823b          	addw	tp,s1,a3
   10cb8:	00d4823b          	addw	tp,s1,a3
   10cbc:	00d4823b          	addw	tp,s1,a3
   10cc0:	00d4823b          	addw	tp,s1,a3
   10cc4:	00d4823b          	addw	tp,s1,a3
   10cc8:	00d4823b          	addw	tp,s1,a3
   10ccc:	00d4823b          	addw	tp,s1,a3
   10cd0:	00d4823b          	addw	tp,s1,a3
   10cd4:	00d4823b          	addw	tp,s1,a3
   10cd8:	00d4823b          	addw	tp,s1,a3
   10cdc:	00d4823b          	addw	tp,s1,a3
   10ce0:	00d4823b          	addw	tp,s1,a3
   10ce4:	00d4823b          	addw	tp,s1,a3
   10ce8:	00d4823b          	addw	tp,s1,a3
   10cec:	00d4823b          	addw	tp,s1,a3
   10cf0:	00d4823b          	addw	tp,s1,a3
   10cf4:	00d4823b          	addw	tp,s1,a3
   10cf8:	00d4823b          	addw	tp,s1,a3
   10cfc:	00d4823b          	addw	tp,s1,a3
   10d00:	00d4823b          	addw	tp,s1,a3
   10d04:	00d4823b          	addw	tp,s1,a3
   10d08:	00d4823b          	addw	tp,s1,a3
   10d0c:	00d4823b          	addw	tp,s1,a3
   10d10:	00d4823b          	addw	tp,s1,a3
   10d14:	00d4823b          	addw	tp,s1,a3
   10d18:	00d4823b          	addw	tp,s1,a3
   10d1c:	00d4823b          	addw	tp,s1,a3
   10d20:	00d4823b          	addw	tp,s1,a3
   10d24:	00d4823b          	addw	tp,s1,a3
   10d28:	00d4823b          	addw	tp,s1,a3
   10d2c:	00d4823b          	addw	tp,s1,a3
   10d30:	00d4823b          	addw	tp,s1,a3
   10d34:	00d4823b          	addw	tp,s1,a3
   10d38:	00d4823b          	addw	tp,s1,a3
   10d3c:	00d4823b          	addw	tp,s1,a3
   10d40:	00d4823b          	addw	tp,s1,a3
   10d44:	00d4823b          	addw	tp,s1,a3
   10d48:	00d4823b          	addw	tp,s1,a3
   10d4c:	00d4823b          	addw	tp,s1,a3
   10d50:	00d4823b          	addw	tp,s1,a3
   10d54:	00d4823b          	addw	tp,s1,a3
   10d58:	00d4823b          	addw	tp,s1,a3
   10d5c:	00d4823b          	addw	tp,s1,a3
   10d60:	00d4823b          	addw	tp,s1,a3
   10d64:	00d4823b          	addw	tp,s1,a3
   10d68:	00d4823b          	addw	tp,s1,a3
   10d6c:	00d4823b          	addw	tp,s1,a3
   10d70:	00d4823b          	addw	tp,s1,a3
   10d74:	00d4823b          	addw	tp,s1,a3
   10d78:	00d4823b          	addw	tp,s1,a3
   10d7c:	00d4823b          	addw	tp,s1,a3
   10d80:	00d4823b          	addw	tp,s1,a3
   10d84:	00d4823b          	addw	tp,s1,a3
   10d88:	00d4823b          	addw	tp,s1,a3
   10d8c:	00d4823b          	addw	tp,s1,a3
   10d90:	00d4823b          	addw	tp,s1,a3
   10d94:	00d4823b          	addw	tp,s1,a3
   10d98:	00d4823b          	addw	tp,s1,a3
   10d9c:	00d4823b          	addw	tp,s1,a3
   10da0:	00d4823b          	addw	tp,s1,a3
   10da4:	00d4823b          	addw	tp,s1,a3
   10da8:	00d4823b          	addw	tp,s1,a3
   10dac:	00d4823b          	addw	tp,s1,a3
   10db0:	00d4823b          	addw	tp,s1,a3
   10db4:	00d4823b          	addw	tp,s1,a3
   10db8:	00d4823b          	addw	tp,s1,a3
   10dbc:	00d4823b          	addw	tp,s1,a3
   10dc0:	00d4823b          	addw	tp,s1,a3
   10dc4:	00d4823b          	addw	tp,s1,a3
   10dc8:	00d4823b          	addw	tp,s1,a3
   10dcc:	00d4823b          	addw	tp,s1,a3
   10dd0:	00d4823b          	addw	tp,s1,a3
   10dd4:	00d4823b          	addw	tp,s1,a3
   10dd8:	00d4823b          	addw	tp,s1,a3
   10ddc:	00d4823b          	addw	tp,s1,a3
   10de0:	00d4823b          	addw	tp,s1,a3
   10de4:	00d4823b          	addw	tp,s1,a3
   10de8:	00d4823b          	addw	tp,s1,a3
   10dec:	00d4823b          	addw	tp,s1,a3
   10df0:	00d4823b          	addw	tp,s1,a3
   10df4:	00d4823b          	addw	tp,s1,a3
   10df8:	00d4823b          	addw	tp,s1,a3
   10dfc:	00d4823b          	addw	tp,s1,a3
   10e00:	00d4823b          	addw	tp,s1,a3
   10e04:	00d4823b          	addw	tp,s1,a3
   10e08:	00d4823b          	addw	tp,s1,a3
   10e0c:	00d4823b          	addw	tp,s1,a3
   10e10:	00d4823b          	addw	tp,s1,a3
   10e14:	00d4823b          	addw	tp,s1,a3
   10e18:	00d4823b          	addw	tp,s1,a3
   10e1c:	00d4823b          	addw	tp,s1,a3
   10e20:	00d4823b          	addw	tp,s1,a3
   10e24:	00d4823b          	addw	tp,s1,a3
   10e28:	00d4823b          	addw	tp,s1,a3
   10e2c:	00d4823b          	addw	tp,s1,a3
   10e30:	00d4823b          	addw	tp,s1,a3
   10e34:	00d4823b          	addw	tp,s1,a3
   10e38:	00d4823b          	addw	tp,s1,a3
   10e3c:	00d4823b          	addw	tp,s1,a3
   10e40:	00d4823b          	addw	tp,s1,a3
   10e44:	00d4823b          	addw	tp,s1,a3
   10e48:	00d4823b          	addw	tp,s1,a3
   10e4c:	00d4823b          	addw	tp,s1,a3
   10e50:	00d4823b          	addw	tp,s1,a3
   10e54:	00d4823b          	addw	tp,s1,a3
   10e58:	00d4823b          	addw	tp,s1,a3
   10e5c:	00d4823b          	addw	tp,s1,a3
   10e60:	00d4823b          	addw	tp,s1,a3
   10e64:	00d4823b          	addw	tp,s1,a3
   10e68:	00d4823b          	addw	tp,s1,a3
   10e6c:	00d4823b          	addw	tp,s1,a3
   10e70:	00d4823b          	addw	tp,s1,a3
   10e74:	00d4823b          	addw	tp,s1,a3
   10e78:	00d4823b          	addw	tp,s1,a3
   10e7c:	00d4823b          	addw	tp,s1,a3
   10e80:	00d4823b          	addw	tp,s1,a3
   10e84:	00d4823b          	addw	tp,s1,a3
   10e88:	00d4823b          	addw	tp,s1,a3
   10e8c:	00d4823b          	addw	tp,s1,a3
   10e90:	00d4823b          	addw	tp,s1,a3
   10e94:	00d4823b          	addw	tp,s1,a3
   10e98:	00d4823b          	addw	tp,s1,a3
   10e9c:	00d4823b          	addw	tp,s1,a3
   10ea0:	00d4823b          	addw	tp,s1,a3
   10ea4:	00d4823b          	addw	tp,s1,a3
   10ea8:	00d4823b          	addw	tp,s1,a3
   10eac:	00d4823b          	addw	tp,s1,a3
   10eb0:	00d4823b          	addw	tp,s1,a3
   10eb4:	00d4823b          	addw	tp,s1,a3
   10eb8:	00d4823b          	addw	tp,s1,a3
   10ebc:	00d4823b          	addw	tp,s1,a3
   10ec0:	00d4823b          	addw	tp,s1,a3
   10ec4:	00d4823b          	addw	tp,s1,a3
   10ec8:	00d4823b          	addw	tp,s1,a3
   10ecc:	00d4823b          	addw	tp,s1,a3
   10ed0:	00d4823b          	addw	tp,s1,a3
   10ed4:	00d4823b          	addw	tp,s1,a3
   10ed8:	00d4823b          	addw	tp,s1,a3
   10edc:	00d4823b          	addw	tp,s1,a3
   10ee0:	00d4823b          	addw	tp,s1,a3
   10ee4:	00d4823b          	addw	tp,s1,a3
   10ee8:	00d4823b          	addw	tp,s1,a3
   10eec:	00d4823b          	addw	tp,s1,a3
   10ef0:	00d4823b          	addw	tp,s1,a3
   10ef4:	00d4823b          	addw	tp,s1,a3
   10ef8:	00d4823b          	addw	tp,s1,a3
   10efc:	00d4823b          	addw	tp,s1,a3
   10f00:	00d4823b          	addw	tp,s1,a3
   10f04:	00d4823b          	addw	tp,s1,a3
   10f08:	00d4823b          	addw	tp,s1,a3
   10f0c:	00d4823b          	addw	tp,s1,a3
   10f10:	00d4823b          	addw	tp,s1,a3
   10f14:	00d4823b          	addw	tp,s1,a3
   10f18:	00d4823b          	addw	tp,s1,a3
   10f1c:	00d4823b          	addw	tp,s1,a3
   10f20:	00d4823b          	addw	tp,s1,a3
   10f24:	00d4823b          	addw	tp,s1,a3
   10f28:	00d4823b          	addw	tp,s1,a3
   10f2c:	00d4823b          	addw	tp,s1,a3
   10f30:	00d4823b          	addw	tp,s1,a3
   10f34:	00d4823b          	addw	tp,s1,a3
   10f38:	00d4823b          	addw	tp,s1,a3
   10f3c:	00d4823b          	addw	tp,s1,a3
   10f40:	00d4823b          	addw	tp,s1,a3
   10f44:	00d4823b          	addw	tp,s1,a3
   10f48:	00d4823b          	addw	tp,s1,a3
   10f4c:	00d4823b          	addw	tp,s1,a3
   10f50:	00d4823b          	addw	tp,s1,a3
   10f54:	00d4823b          	addw	tp,s1,a3
   10f58:	00d4823b          	addw	tp,s1,a3
   10f5c:	00d4823b          	addw	tp,s1,a3
   10f60:	00d4823b          	addw	tp,s1,a3
   10f64:	00d4823b          	addw	tp,s1,a3
   10f68:	00d4823b          	addw	tp,s1,a3
   10f6c:	00d4823b          	addw	tp,s1,a3
   10f70:	00d4823b          	addw	tp,s1,a3
   10f74:	00d4823b          	addw	tp,s1,a3
   10f78:	00d4823b          	addw	tp,s1,a3
   10f7c:	00d4823b          	addw	tp,s1,a3
   10f80:	00d4823b          	addw	tp,s1,a3
   10f84:	00d4823b          	addw	tp,s1,a3
   10f88:	00d4823b          	addw	tp,s1,a3
   10f8c:	00d4823b          	addw	tp,s1,a3
   10f90:	00d4823b          	addw	tp,s1,a3
   10f94:	00d4823b          	addw	tp,s1,a3
   10f98:	00d4823b          	addw	tp,s1,a3
   10f9c:	00d4823b          	addw	tp,s1,a3
   10fa0:	00d4823b          	addw	tp,s1,a3
   10fa4:	00d4823b          	addw	tp,s1,a3
   10fa8:	00d4823b          	addw	tp,s1,a3
   10fac:	00d4823b          	addw	tp,s1,a3
   10fb0:	00d4823b          	addw	tp,s1,a3
   10fb4:	00d4823b          	addw	tp,s1,a3
   10fb8:	00d4823b          	addw	tp,s1,a3
   10fbc:	00d4823b          	addw	tp,s1,a3
   10fc0:	00d4823b          	addw	tp,s1,a3
   10fc4:	00d4823b          	addw	tp,s1,a3
   10fc8:	00d4823b          	addw	tp,s1,a3
   10fcc:	00d4823b          	addw	tp,s1,a3
   10fd0:	00d4823b          	addw	tp,s1,a3
   10fd4:	00d4823b          	addw	tp,s1,a3
   10fd8:	00d4823b          	addw	tp,s1,a3
   10fdc:	00d4823b          	addw	tp,s1,a3
   10fe0:	00d4823b          	addw	tp,s1,a3
   10fe4:	00d4823b          	addw	tp,s1,a3
   10fe8:	00d4823b          	addw	tp,s1,a3
   10fec:	00d4823b          	addw	tp,s1,a3
   10ff0:	00d4823b          	addw	tp,s1,a3
   10ff4:	00d4823b          	addw	tp,s1,a3
   10ff8:	00d4823b          	addw	tp,s1,a3
   10ffc:	00d4823b          	addw	tp,s1,a3
   11000:	00d4823b          	addw	tp,s1,a3
   11004:	00d4823b          	addw	tp,s1,a3
   11008:	00d4823b          	addw	tp,s1,a3
   1100c:	00d4823b          	addw	tp,s1,a3
   11010:	00d4823b          	addw	tp,s1,a3
   11014:	00d4823b          	addw	tp,s1,a3
   11018:	00d4823b          	addw	tp,s1,a3
   1101c:	00d4823b          	addw	tp,s1,a3
   11020:	00d4823b          	addw	tp,s1,a3
   11024:	00d4823b          	addw	tp,s1,a3
   11028:	00d4823b          	addw	tp,s1,a3
   1102c:	00d4823b          	addw	tp,s1,a3
   11030:	00d4823b          	addw	tp,s1,a3
   11034:	00d4823b          	addw	tp,s1,a3
   11038:	00d4823b          	addw	tp,s1,a3
   1103c:	00d4823b          	addw	tp,s1,a3
   11040:	00d4823b          	addw	tp,s1,a3
   11044:	00d4823b          	addw	tp,s1,a3
   11048:	00d4823b          	addw	tp,s1,a3
   1104c:	00d4823b          	addw	tp,s1,a3
   11050:	00d4823b          	addw	tp,s1,a3
   11054:	00d4823b          	addw	tp,s1,a3
   11058:	00d4823b          	addw	tp,s1,a3
   1105c:	00d4823b          	addw	tp,s1,a3
   11060:	00d4823b          	addw	tp,s1,a3
   11064:	00d4823b          	addw	tp,s1,a3
   11068:	00d4823b          	addw	tp,s1,a3
   1106c:	00d4823b          	addw	tp,s1,a3
   11070:	00d4823b          	addw	tp,s1,a3
   11074:	00d4823b          	addw	tp,s1,a3
   11078:	00d4823b          	addw	tp,s1,a3
   1107c:	00d4823b          	addw	tp,s1,a3
   11080:	00d4823b          	addw	tp,s1,a3
   11084:	00d4823b          	addw	tp,s1,a3
   11088:	00d4823b          	addw	tp,s1,a3
   1108c:	00d4823b          	addw	tp,s1,a3
   11090:	00d4823b          	addw	tp,s1,a3
   11094:	00d4823b          	addw	tp,s1,a3
   11098:	00d4823b          	addw	tp,s1,a3
   1109c:	00d4823b          	addw	tp,s1,a3
   110a0:	00d4823b          	addw	tp,s1,a3
   110a4:	00d4823b          	addw	tp,s1,a3
   110a8:	00d4823b          	addw	tp,s1,a3
   110ac:	00d4823b          	addw	tp,s1,a3
   110b0:	00d4823b          	addw	tp,s1,a3
   110b4:	00d4823b          	addw	tp,s1,a3
   110b8:	00d4823b          	addw	tp,s1,a3
   110bc:	00d4823b          	addw	tp,s1,a3
   110c0:	00d4823b          	addw	tp,s1,a3
   110c4:	00d4823b          	addw	tp,s1,a3
   110c8:	00d4823b          	addw	tp,s1,a3
   110cc:	00d4823b          	addw	tp,s1,a3
   110d0:	00d4823b          	addw	tp,s1,a3
   110d4:	00d4823b          	addw	tp,s1,a3
   110d8:	00d4823b          	addw	tp,s1,a3
   110dc:	00d4823b          	addw	tp,s1,a3
   110e0:	00d4823b          	addw	tp,s1,a3
   110e4:	00d4823b          	addw	tp,s1,a3
   110e8:	00d4823b          	addw	tp,s1,a3
   110ec:	00d4823b          	addw	tp,s1,a3
   110f0:	00d4823b          	addw	tp,s1,a3
   110f4:	00d4823b          	addw	tp,s1,a3
   110f8:	00d4823b          	addw	tp,s1,a3
   110fc:	00d4823b          	addw	tp,s1,a3
   11100:	00d4823b          	addw	tp,s1,a3
   11104:	00d4823b          	addw	tp,s1,a3
   11108:	00d4823b          	addw	tp,s1,a3
   1110c:	00d4823b          	addw	tp,s1,a3
   11110:	00d4823b          	addw	tp,s1,a3
   11114:	00d4823b          	addw	tp,s1,a3
   11118:	00d4823b          	addw	tp,s1,a3
   1111c:	00d4823b          	addw	tp,s1,a3
   11120:	00d4823b          	addw	tp,s1,a3
   11124:	00d4823b          	addw	tp,s1,a3
   11128:	00d4823b          	addw	tp,s1,a3
   1112c:	00d4823b          	addw	tp,s1,a3
   11130:	00d4823b          	addw	tp,s1,a3
   11134:	00d4823b          	addw	tp,s1,a3
   11138:	00d4823b          	addw	tp,s1,a3
   1113c:	00d4823b          	addw	tp,s1,a3
   11140:	00d4823b          	addw	tp,s1,a3
   11144:	00d4823b          	addw	tp,s1,a3
   11148:	00d4823b          	addw	tp,s1,a3
   1114c:	00d4823b          	addw	tp,s1,a3
   11150:	00d4823b          	addw	tp,s1,a3
   11154:	00d4823b          	addw	tp,s1,a3
   11158:	00d4823b          	addw	tp,s1,a3
   1115c:	00d4823b          	addw	tp,s1,a3
   11160:	00d4823b          	addw	tp,s1,a3
   11164:	00d4823b          	addw	tp,s1,a3
   11168:	00d4823b          	addw	tp,s1,a3
   1116c:	00d4823b          	addw	tp,s1,a3
   11170:	00d4823b          	addw	tp,s1,a3
   11174:	00d4823b          	addw	tp,s1,a3
   11178:	00d4823b          	addw	tp,s1,a3
   1117c:	00d4823b          	addw	tp,s1,a3
   11180:	00d4823b          	addw	tp,s1,a3
   11184:	00d4823b          	addw	tp,s1,a3
   11188:	00d4823b          	addw	tp,s1,a3
   1118c:	00d4823b          	addw	tp,s1,a3
   11190:	00d4823b          	addw	tp,s1,a3
   11194:	00d4823b          	addw	tp,s1,a3
   11198:	00d4823b          	addw	tp,s1,a3
   1119c:	00d4823b          	addw	tp,s1,a3
   111a0:	00d4823b          	addw	tp,s1,a3
   111a4:	00d4823b          	addw	tp,s1,a3
   111a8:	00d4823b          	addw	tp,s1,a3
   111ac:	00d4823b          	addw	tp,s1,a3
   111b0:	00d4823b          	addw	tp,s1,a3
   111b4:	00d4823b          	addw	tp,s1,a3
   111b8:	00d4823b          	addw	tp,s1,a3
   111bc:	00d4823b          	addw	tp,s1,a3
   111c0:	00d4823b          	addw	tp,s1,a3
   111c4:	00d4823b          	addw	tp,s1,a3
   111c8:	00d4823b          	addw	tp,s1,a3
   111cc:	00d4823b          	addw	tp,s1,a3
   111d0:	00d4823b          	addw	tp,s1,a3
   111d4:	00d4823b          	addw	tp,s1,a3
   111d8:	00d4823b          	addw	tp,s1,a3
   111dc:	00d4823b          	addw	tp,s1,a3
   111e0:	00d4823b          	addw	tp,s1,a3
   111e4:	00d4823b          	addw	tp,s1,a3
   111e8:	00d4823b          	addw	tp,s1,a3
   111ec:	00d4823b          	addw	tp,s1,a3
   111f0:	00d4823b          	addw	tp,s1,a3
   111f4:	00d4823b          	addw	tp,s1,a3
   111f8:	00d4823b          	addw	tp,s1,a3
   111fc:	00d4823b          	addw	tp,s1,a3
   11200:	00d4823b          	addw	tp,s1,a3
   11204:	00d4823b          	addw	tp,s1,a3
   11208:	00d4823b          	addw	tp,s1,a3
   1120c:	00d4823b          	addw	tp,s1,a3
   11210:	00d4823b          	addw	tp,s1,a3
   11214:	00d4823b          	addw	tp,s1,a3
   11218:	00d4823b          	addw	tp,s1,a3
   1121c:	00d4823b          	addw	tp,s1,a3
   11220:	00d4823b          	addw	tp,s1,a3
   11224:	00d4823b          	addw	tp,s1,a3
   11228:	00d4823b          	addw	tp,s1,a3
   1122c:	00d4823b          	addw	tp,s1,a3
   11230:	00d4823b          	addw	tp,s1,a3
   11234:	00d4823b          	addw	tp,s1,a3
   11238:	00d4823b          	addw	tp,s1,a3
   1123c:	00d4823b          	addw	tp,s1,a3
   11240:	00d4823b          	addw	tp,s1,a3
   11244:	00d4823b          	addw	tp,s1,a3
   11248:	00d4823b          	addw	tp,s1,a3
   1124c:	00d4823b          	addw	tp,s1,a3
   11250:	00d4823b          	addw	tp,s1,a3
   11254:	00d4823b          	addw	tp,s1,a3
   11258:	00d4823b          	addw	tp,s1,a3
   1125c:	00d4823b          	addw	tp,s1,a3
   11260:	00d4823b          	addw	tp,s1,a3
   11264:	00d4823b          	addw	tp,s1,a3
   11268:	00d4823b          	addw	tp,s1,a3
   1126c:	00d4823b          	addw	tp,s1,a3
   11270:	00d4823b          	addw	tp,s1,a3
   11274:	00d4823b          	addw	tp,s1,a3
   11278:	00d4823b          	addw	tp,s1,a3
   1127c:	00d4823b          	addw	tp,s1,a3
   11280:	00d4823b          	addw	tp,s1,a3
   11284:	00d4823b          	addw	tp,s1,a3
   11288:	00d4823b          	addw	tp,s1,a3
   1128c:	00d4823b          	addw	tp,s1,a3
   11290:	00d4823b          	addw	tp,s1,a3
   11294:	00d4823b          	addw	tp,s1,a3
   11298:	00d4823b          	addw	tp,s1,a3
   1129c:	00d4823b          	addw	tp,s1,a3
   112a0:	00d4823b          	addw	tp,s1,a3
   112a4:	00d4823b          	addw	tp,s1,a3
   112a8:	00d4823b          	addw	tp,s1,a3
   112ac:	00d4823b          	addw	tp,s1,a3
   112b0:	00d4823b          	addw	tp,s1,a3
   112b4:	00d4823b          	addw	tp,s1,a3
   112b8:	00d4823b          	addw	tp,s1,a3
   112bc:	00d4823b          	addw	tp,s1,a3
   112c0:	00d4823b          	addw	tp,s1,a3
   112c4:	00d4823b          	addw	tp,s1,a3
   112c8:	00d4823b          	addw	tp,s1,a3
   112cc:	00d4823b          	addw	tp,s1,a3
   112d0:	00d4823b          	addw	tp,s1,a3
   112d4:	00d4823b          	addw	tp,s1,a3
   112d8:	00d4823b          	addw	tp,s1,a3
   112dc:	00d4823b          	addw	tp,s1,a3
   112e0:	00d4823b          	addw	tp,s1,a3
   112e4:	00d4823b          	addw	tp,s1,a3
   112e8:	00d4823b          	addw	tp,s1,a3
   112ec:	00d4823b          	addw	tp,s1,a3
   112f0:	00d4823b          	addw	tp,s1,a3
   112f4:	00d4823b          	addw	tp,s1,a3
   112f8:	00d4823b          	addw	tp,s1,a3
   112fc:	00d4823b          	addw	tp,s1,a3
   11300:	00d4823b          	addw	tp,s1,a3
   11304:	00d4823b          	addw	tp,s1,a3
   11308:	00d4823b          	addw	tp,s1,a3
   1130c:	00d4823b          	addw	tp,s1,a3
   11310:	00d4823b          	addw	tp,s1,a3
   11314:	00d4823b          	addw	tp,s1,a3
   11318:	00d4823b          	addw	tp,s1,a3
   1131c:	00d4823b          	addw	tp,s1,a3
   11320:	00d4823b          	addw	tp,s1,a3
   11324:	00d4823b          	addw	tp,s1,a3
   11328:	00d4823b          	addw	tp,s1,a3
   1132c:	00d4823b          	addw	tp,s1,a3
   11330:	00d4823b          	addw	tp,s1,a3
   11334:	00d4823b          	addw	tp,s1,a3
   11338:	00d4823b          	addw	tp,s1,a3
   1133c:	00d4823b          	addw	tp,s1,a3
   11340:	00d4823b          	addw	tp,s1,a3
   11344:	00d4823b          	addw	tp,s1,a3
   11348:	00d4823b          	addw	tp,s1,a3
   1134c:	00d4823b          	addw	tp,s1,a3
   11350:	00d4823b          	addw	tp,s1,a3
   11354:	00d4823b          	addw	tp,s1,a3
   11358:	00d4823b          	addw	tp,s1,a3
   1135c:	00d4823b          	addw	tp,s1,a3
   11360:	00d4823b          	addw	tp,s1,a3
   11364:	00d4823b          	addw	tp,s1,a3
   11368:	00d4823b          	addw	tp,s1,a3
   1136c:	00d4823b          	addw	tp,s1,a3
   11370:	00d4823b          	addw	tp,s1,a3
   11374:	00d4823b          	addw	tp,s1,a3
   11378:	00d4823b          	addw	tp,s1,a3
   1137c:	00d4823b          	addw	tp,s1,a3
   11380:	00d4823b          	addw	tp,s1,a3
   11384:	00d4823b          	addw	tp,s1,a3
   11388:	00d4823b          	addw	tp,s1,a3
   1138c:	00d4823b          	addw	tp,s1,a3
   11390:	00d4823b          	addw	tp,s1,a3
   11394:	00d4823b          	addw	tp,s1,a3
   11398:	00d4823b          	addw	tp,s1,a3
   1139c:	00d4823b          	addw	tp,s1,a3
   113a0:	00d4823b          	addw	tp,s1,a3
   113a4:	00d4823b          	addw	tp,s1,a3
   113a8:	00d4823b          	addw	tp,s1,a3
   113ac:	00d4823b          	addw	tp,s1,a3
   113b0:	00d4823b          	addw	tp,s1,a3
   113b4:	00d4823b          	addw	tp,s1,a3
   113b8:	00d4823b          	addw	tp,s1,a3
   113bc:	00d4823b          	addw	tp,s1,a3
   113c0:	00d4823b          	addw	tp,s1,a3
   113c4:	00d4823b          	addw	tp,s1,a3
   113c8:	00d4823b          	addw	tp,s1,a3
   113cc:	00d4823b          	addw	tp,s1,a3
   113d0:	00d4823b          	addw	tp,s1,a3
   113d4:	00d4823b          	addw	tp,s1,a3
   113d8:	00d4823b          	addw	tp,s1,a3
   113dc:	00d4823b          	addw	tp,s1,a3
   113e0:	00d4823b          	addw	tp,s1,a3
   113e4:	00d4823b          	addw	tp,s1,a3
   113e8:	00d4823b          	addw	tp,s1,a3
   113ec:	00d4823b          	addw	tp,s1,a3
   113f0:	00d4823b          	addw	tp,s1,a3
   113f4:	00d4823b          	addw	tp,s1,a3
   113f8:	00d4823b          	addw	tp,s1,a3
   113fc:	00d4823b          	addw	tp,s1,a3
   11400:	00d4823b          	addw	tp,s1,a3
   11404:	00d4823b          	addw	tp,s1,a3
   11408:	00d4823b          	addw	tp,s1,a3
   1140c:	00d4823b          	addw	tp,s1,a3
   11410:	00d4823b          	addw	tp,s1,a3
   11414:	00d4823b          	addw	tp,s1,a3
   11418:	00d4823b          	addw	tp,s1,a3
   1141c:	00d4823b          	addw	tp,s1,a3
   11420:	00d4823b          	addw	tp,s1,a3
   11424:	00d4823b          	addw	tp,s1,a3
   11428:	00d4823b          	addw	tp,s1,a3
   1142c:	00d4823b          	addw	tp,s1,a3
   11430:	00d4823b          	addw	tp,s1,a3
   11434:	00d4823b          	addw	tp,s1,a3
   11438:	00d4823b          	addw	tp,s1,a3
   1143c:	00d4823b          	addw	tp,s1,a3
   11440:	00d4823b          	addw	tp,s1,a3
   11444:	00d4823b          	addw	tp,s1,a3
   11448:	00d4823b          	addw	tp,s1,a3
   1144c:	00d4823b          	addw	tp,s1,a3
   11450:	00d4823b          	addw	tp,s1,a3
   11454:	00d4823b          	addw	tp,s1,a3
   11458:	00d4823b          	addw	tp,s1,a3
   1145c:	00d4823b          	addw	tp,s1,a3
   11460:	00d4823b          	addw	tp,s1,a3
   11464:	00d4823b          	addw	tp,s1,a3
   11468:	00d4823b          	addw	tp,s1,a3
   1146c:	00d4823b          	addw	tp,s1,a3
   11470:	00d4823b          	addw	tp,s1,a3
   11474:	00d4823b          	addw	tp,s1,a3
   11478:	00d4823b          	addw	tp,s1,a3
   1147c:	00d4823b          	addw	tp,s1,a3
   11480:	00d4823b          	addw	tp,s1,a3
   11484:	00d4823b          	addw	tp,s1,a3
   11488:	00d4823b          	addw	tp,s1,a3
   1148c:	00d4823b          	addw	tp,s1,a3
   11490:	00d4823b          	addw	tp,s1,a3
   11494:	00d4823b          	addw	tp,s1,a3
   11498:	00d4823b          	addw	tp,s1,a3
   1149c:	00d4823b          	addw	tp,s1,a3
   114a0:	00d4823b          	addw	tp,s1,a3
   114a4:	00d4823b          	addw	tp,s1,a3
   114a8:	00d4823b          	addw	tp,s1,a3
   114ac:	00d4823b          	addw	tp,s1,a3
   114b0:	00d4823b          	addw	tp,s1,a3
   114b4:	00d4823b          	addw	tp,s1,a3
   114b8:	00d4823b          	addw	tp,s1,a3
   114bc:	00d4823b          	addw	tp,s1,a3
   114c0:	00d4823b          	addw	tp,s1,a3
   114c4:	00d4823b          	addw	tp,s1,a3
   114c8:	00d4823b          	addw	tp,s1,a3
   114cc:	00d4823b          	addw	tp,s1,a3
   114d0:	00d4823b          	addw	tp,s1,a3
   114d4:	00d4823b          	addw	tp,s1,a3
   114d8:	00d4823b          	addw	tp,s1,a3
   114dc:	00d4823b          	addw	tp,s1,a3
   114e0:	00d4823b          	addw	tp,s1,a3
   114e4:	00d4823b          	addw	tp,s1,a3
   114e8:	00d4823b          	addw	tp,s1,a3
   114ec:	00d4823b          	addw	tp,s1,a3
   114f0:	00d4823b          	addw	tp,s1,a3
   114f4:	00d4823b          	addw	tp,s1,a3
   114f8:	00d4823b          	addw	tp,s1,a3
   114fc:	00d4823b          	addw	tp,s1,a3
   11500:	00d4823b          	addw	tp,s1,a3
   11504:	00d4823b          	addw	tp,s1,a3
   11508:	00d4823b          	addw	tp,s1,a3
   1150c:	00d4823b          	addw	tp,s1,a3
   11510:	00d4823b          	addw	tp,s1,a3
   11514:	00d4823b          	addw	tp,s1,a3
   11518:	00d4823b          	addw	tp,s1,a3
   1151c:	00d4823b          	addw	tp,s1,a3
   11520:	00d4823b          	addw	tp,s1,a3
   11524:	00d4823b          	addw	tp,s1,a3
   11528:	00d4823b          	addw	tp,s1,a3
   1152c:	00d4823b          	addw	tp,s1,a3
   11530:	00d4823b          	addw	tp,s1,a3
   11534:	00d4823b          	addw	tp,s1,a3
   11538:	00d4823b          	addw	tp,s1,a3
   1153c:	00d4823b          	addw	tp,s1,a3
   11540:	00d4823b          	addw	tp,s1,a3
   11544:	00d4823b          	addw	tp,s1,a3
   11548:	00d4823b          	addw	tp,s1,a3
   1154c:	00d4823b          	addw	tp,s1,a3
   11550:	00d4823b          	addw	tp,s1,a3
   11554:	00d4823b          	addw	tp,s1,a3
   11558:	00d4823b          	addw	tp,s1,a3
   1155c:	00d4823b          	addw	tp,s1,a3
   11560:	00d4823b          	addw	tp,s1,a3
   11564:	00d4823b          	addw	tp,s1,a3
   11568:	00d4823b          	addw	tp,s1,a3
   1156c:	00d4823b          	addw	tp,s1,a3
   11570:	00d4823b          	addw	tp,s1,a3
   11574:	00d4823b          	addw	tp,s1,a3
   11578:	00d4823b          	addw	tp,s1,a3
   1157c:	00d4823b          	addw	tp,s1,a3
   11580:	00d4823b          	addw	tp,s1,a3
   11584:	00d4823b          	addw	tp,s1,a3
   11588:	00d4823b          	addw	tp,s1,a3
   1158c:	00d4823b          	addw	tp,s1,a3
   11590:	00d4823b          	addw	tp,s1,a3
   11594:	00d4823b          	addw	tp,s1,a3
   11598:	00d4823b          	addw	tp,s1,a3
   1159c:	00d4823b          	addw	tp,s1,a3
   115a0:	00d4823b          	addw	tp,s1,a3
   115a4:	00d4823b          	addw	tp,s1,a3
   115a8:	00d4823b          	addw	tp,s1,a3
   115ac:	00d4823b          	addw	tp,s1,a3
   115b0:	00d4823b          	addw	tp,s1,a3
   115b4:	00d4823b          	addw	tp,s1,a3
   115b8:	00d4823b          	addw	tp,s1,a3
   115bc:	00d4823b          	addw	tp,s1,a3
   115c0:	00d4823b          	addw	tp,s1,a3
   115c4:	00d4823b          	addw	tp,s1,a3
   115c8:	00d4823b          	addw	tp,s1,a3
   115cc:	00d4823b          	addw	tp,s1,a3
   115d0:	00d4823b          	addw	tp,s1,a3
   115d4:	00d4823b          	addw	tp,s1,a3
   115d8:	00d4823b          	addw	tp,s1,a3
   115dc:	00d4823b          	addw	tp,s1,a3
   115e0:	00d4823b          	addw	tp,s1,a3
   115e4:	00d4823b          	addw	tp,s1,a3
   115e8:	00d4823b          	addw	tp,s1,a3
   115ec:	00d4823b          	addw	tp,s1,a3
   115f0:	00d4823b          	addw	tp,s1,a3
   115f4:	00d4823b          	addw	tp,s1,a3
   115f8:	00d4823b          	addw	tp,s1,a3
   115fc:	00d4823b          	addw	tp,s1,a3
   11600:	00d4823b          	addw	tp,s1,a3
   11604:	00d4823b          	addw	tp,s1,a3
   11608:	00d4823b          	addw	tp,s1,a3
   1160c:	00d4823b          	addw	tp,s1,a3
   11610:	00d4823b          	addw	tp,s1,a3
   11614:	00d4823b          	addw	tp,s1,a3
   11618:	00d4823b          	addw	tp,s1,a3
   1161c:	00d4823b          	addw	tp,s1,a3
   11620:	00d4823b          	addw	tp,s1,a3
   11624:	00d4823b          	addw	tp,s1,a3
   11628:	00d4823b          	addw	tp,s1,a3
   1162c:	00d4823b          	addw	tp,s1,a3
   11630:	00d4823b          	addw	tp,s1,a3
   11634:	00d4823b          	addw	tp,s1,a3
   11638:	00d4823b          	addw	tp,s1,a3
   1163c:	00d4823b          	addw	tp,s1,a3
   11640:	00d4823b          	addw	tp,s1,a3
   11644:	00d4823b          	addw	tp,s1,a3
   11648:	00d4823b          	addw	tp,s1,a3
   1164c:	00d4823b          	addw	tp,s1,a3
   11650:	00d4823b          	addw	tp,s1,a3
   11654:	00d4823b          	addw	tp,s1,a3
   11658:	00d4823b          	addw	tp,s1,a3
   1165c:	00d4823b          	addw	tp,s1,a3
   11660:	00d4823b          	addw	tp,s1,a3
   11664:	00d4823b          	addw	tp,s1,a3
   11668:	00d4823b          	addw	tp,s1,a3
   1166c:	00d4823b          	addw	tp,s1,a3
   11670:	00d4823b          	addw	tp,s1,a3
   11674:	00d4823b          	addw	tp,s1,a3
   11678:	00d4823b          	addw	tp,s1,a3
   1167c:	00d4823b          	addw	tp,s1,a3
   11680:	00d4823b          	addw	tp,s1,a3
   11684:	00d4823b          	addw	tp,s1,a3
   11688:	00d4823b          	addw	tp,s1,a3
   1168c:	00d4823b          	addw	tp,s1,a3
   11690:	00d4823b          	addw	tp,s1,a3
   11694:	00d4823b          	addw	tp,s1,a3
   11698:	00d4823b          	addw	tp,s1,a3
   1169c:	00d4823b          	addw	tp,s1,a3
   116a0:	00d4823b          	addw	tp,s1,a3
   116a4:	00d4823b          	addw	tp,s1,a3
   116a8:	00d4823b          	addw	tp,s1,a3
   116ac:	00d4823b          	addw	tp,s1,a3
   116b0:	00d4823b          	addw	tp,s1,a3
   116b4:	00d4823b          	addw	tp,s1,a3
   116b8:	00d4823b          	addw	tp,s1,a3
   116bc:	00d4823b          	addw	tp,s1,a3
   116c0:	00d4823b          	addw	tp,s1,a3
   116c4:	00d4823b          	addw	tp,s1,a3
   116c8:	00d4823b          	addw	tp,s1,a3
   116cc:	00d4823b          	addw	tp,s1,a3
   116d0:	00d4823b          	addw	tp,s1,a3
   116d4:	00d4823b          	addw	tp,s1,a3
   116d8:	00d4823b          	addw	tp,s1,a3
   116dc:	00d4823b          	addw	tp,s1,a3
   116e0:	00d4823b          	addw	tp,s1,a3
   116e4:	00d4823b          	addw	tp,s1,a3
   116e8:	00d4823b          	addw	tp,s1,a3
   116ec:	00d4823b          	addw	tp,s1,a3
   116f0:	00d4823b          	addw	tp,s1,a3
   116f4:	00d4823b          	addw	tp,s1,a3
   116f8:	00d4823b          	addw	tp,s1,a3
   116fc:	00d4823b          	addw	tp,s1,a3
   11700:	00d4823b          	addw	tp,s1,a3
   11704:	00d4823b          	addw	tp,s1,a3
   11708:	00d4823b          	addw	tp,s1,a3
   1170c:	00d4823b          	addw	tp,s1,a3
   11710:	00d4823b          	addw	tp,s1,a3
   11714:	00d4823b          	addw	tp,s1,a3
   11718:	00d4823b          	addw	tp,s1,a3
   1171c:	00d4823b          	addw	tp,s1,a3
   11720:	00d4823b          	addw	tp,s1,a3
   11724:	00d4823b          	addw	tp,s1,a3
   11728:	00d4823b          	addw	tp,s1,a3
   1172c:	00d4823b          	addw	tp,s1,a3
   11730:	00d4823b          	addw	tp,s1,a3
   11734:	00d4823b          	addw	tp,s1,a3
   11738:	00d4823b          	addw	tp,s1,a3
   1173c:	00d4823b          	addw	tp,s1,a3
   11740:	00d4823b          	addw	tp,s1,a3
   11744:	00d4823b          	addw	tp,s1,a3
   11748:	00d4823b          	addw	tp,s1,a3
   1174c:	00d4823b          	addw	tp,s1,a3
   11750:	00d4823b          	addw	tp,s1,a3
   11754:	00d4823b          	addw	tp,s1,a3
   11758:	00d4823b          	addw	tp,s1,a3
   1175c:	00d4823b          	addw	tp,s1,a3
   11760:	00d4823b          	addw	tp,s1,a3
   11764:	00d4823b          	addw	tp,s1,a3
   11768:	00d4823b          	addw	tp,s1,a3
   1176c:	00d4823b          	addw	tp,s1,a3
   11770:	00d4823b          	addw	tp,s1,a3
   11774:	00d4823b          	addw	tp,s1,a3
   11778:	00d4823b          	addw	tp,s1,a3
   1177c:	00d4823b          	addw	tp,s1,a3
   11780:	00d4823b          	addw	tp,s1,a3
   11784:	00d4823b          	addw	tp,s1,a3
   11788:	00d4823b          	addw	tp,s1,a3
   1178c:	00d4823b          	addw	tp,s1,a3
   11790:	00d4823b          	addw	tp,s1,a3
   11794:	00d4823b          	addw	tp,s1,a3
   11798:	00d4823b          	addw	tp,s1,a3
   1179c:	00d4823b          	addw	tp,s1,a3
   117a0:	00d4823b          	addw	tp,s1,a3
   117a4:	00d4823b          	addw	tp,s1,a3
   117a8:	00d4823b          	addw	tp,s1,a3
   117ac:	00d4823b          	addw	tp,s1,a3
   117b0:	00d4823b          	addw	tp,s1,a3
   117b4:	00d4823b          	addw	tp,s1,a3
   117b8:	00d4823b          	addw	tp,s1,a3
   117bc:	00d4823b          	addw	tp,s1,a3
   117c0:	00d4823b          	addw	tp,s1,a3
   117c4:	00d4823b          	addw	tp,s1,a3
   117c8:	00d4823b          	addw	tp,s1,a3
   117cc:	00d4823b          	addw	tp,s1,a3
   117d0:	00d4823b          	addw	tp,s1,a3
   117d4:	00d4823b          	addw	tp,s1,a3
   117d8:	00d4823b          	addw	tp,s1,a3
   117dc:	00d4823b          	addw	tp,s1,a3
   117e0:	00d4823b          	addw	tp,s1,a3
   117e4:	00d4823b          	addw	tp,s1,a3
   117e8:	00d4823b          	addw	tp,s1,a3
   117ec:	00d4823b          	addw	tp,s1,a3
   117f0:	00d4823b          	addw	tp,s1,a3
   117f4:	00d4823b          	addw	tp,s1,a3
   117f8:	00d4823b          	addw	tp,s1,a3
   117fc:	00d4823b          	addw	tp,s1,a3
   11800:	00d4823b          	addw	tp,s1,a3
   11804:	00d4823b          	addw	tp,s1,a3
   11808:	00d4823b          	addw	tp,s1,a3
   1180c:	00d4823b          	addw	tp,s1,a3
   11810:	00d4823b          	addw	tp,s1,a3
   11814:	00d4823b          	addw	tp,s1,a3
   11818:	00d4823b          	addw	tp,s1,a3
   1181c:	00d4823b          	addw	tp,s1,a3
   11820:	00d4823b          	addw	tp,s1,a3
   11824:	00d4823b          	addw	tp,s1,a3
   11828:	00d4823b          	addw	tp,s1,a3
   1182c:	00d4823b          	addw	tp,s1,a3
   11830:	00d4823b          	addw	tp,s1,a3
   11834:	00d4823b          	addw	tp,s1,a3
   11838:	00d4823b          	addw	tp,s1,a3
   1183c:	00d4823b          	addw	tp,s1,a3
   11840:	00d4823b          	addw	tp,s1,a3
   11844:	00d4823b          	addw	tp,s1,a3
   11848:	00d4823b          	addw	tp,s1,a3
   1184c:	00d4823b          	addw	tp,s1,a3
   11850:	00d4823b          	addw	tp,s1,a3
   11854:	00d4823b          	addw	tp,s1,a3
   11858:	00d4823b          	addw	tp,s1,a3
   1185c:	00d4823b          	addw	tp,s1,a3
   11860:	00d4823b          	addw	tp,s1,a3
   11864:	00d4823b          	addw	tp,s1,a3
   11868:	00d4823b          	addw	tp,s1,a3
   1186c:	00d4823b          	addw	tp,s1,a3
   11870:	00d4823b          	addw	tp,s1,a3
   11874:	00d4823b          	addw	tp,s1,a3
   11878:	00d4823b          	addw	tp,s1,a3
   1187c:	00d4823b          	addw	tp,s1,a3
   11880:	00d4823b          	addw	tp,s1,a3
   11884:	00d4823b          	addw	tp,s1,a3
   11888:	00d4823b          	addw	tp,s1,a3
   1188c:	00d4823b          	addw	tp,s1,a3
   11890:	00d4823b          	addw	tp,s1,a3
   11894:	00d4823b          	addw	tp,s1,a3
   11898:	00d4823b          	addw	tp,s1,a3
   1189c:	00d4823b          	addw	tp,s1,a3
   118a0:	00d4823b          	addw	tp,s1,a3
   118a4:	00d4823b          	addw	tp,s1,a3
   118a8:	00d4823b          	addw	tp,s1,a3
   118ac:	00d4823b          	addw	tp,s1,a3
   118b0:	00d4823b          	addw	tp,s1,a3
   118b4:	00d4823b          	addw	tp,s1,a3
   118b8:	00d4823b          	addw	tp,s1,a3
   118bc:	00d4823b          	addw	tp,s1,a3
   118c0:	00d4823b          	addw	tp,s1,a3
   118c4:	00d4823b          	addw	tp,s1,a3
   118c8:	00d4823b          	addw	tp,s1,a3
   118cc:	00d4823b          	addw	tp,s1,a3
   118d0:	00d4823b          	addw	tp,s1,a3
   118d4:	00d4823b          	addw	tp,s1,a3
   118d8:	00d4823b          	addw	tp,s1,a3
   118dc:	00d4823b          	addw	tp,s1,a3
   118e0:	00d4823b          	addw	tp,s1,a3
   118e4:	00d4823b          	addw	tp,s1,a3
   118e8:	00d4823b          	addw	tp,s1,a3
   118ec:	00d4823b          	addw	tp,s1,a3
   118f0:	00d4823b          	addw	tp,s1,a3
   118f4:	00d4823b          	addw	tp,s1,a3
   118f8:	00d4823b          	addw	tp,s1,a3
   118fc:	00d4823b          	addw	tp,s1,a3
   11900:	00d4823b          	addw	tp,s1,a3
   11904:	00d4823b          	addw	tp,s1,a3
   11908:	00d4823b          	addw	tp,s1,a3
   1190c:	00d4823b          	addw	tp,s1,a3
   11910:	00d4823b          	addw	tp,s1,a3
   11914:	00d4823b          	addw	tp,s1,a3
   11918:	00d4823b          	addw	tp,s1,a3
   1191c:	00d4823b          	addw	tp,s1,a3
   11920:	00d4823b          	addw	tp,s1,a3
   11924:	00d4823b          	addw	tp,s1,a3
   11928:	00d4823b          	addw	tp,s1,a3
   1192c:	00d4823b          	addw	tp,s1,a3
   11930:	00d4823b          	addw	tp,s1,a3
   11934:	00d4823b          	addw	tp,s1,a3
   11938:	00d4823b          	addw	tp,s1,a3
   1193c:	00d4823b          	addw	tp,s1,a3
   11940:	00d4823b          	addw	tp,s1,a3
   11944:	00d4823b          	addw	tp,s1,a3
   11948:	00d4823b          	addw	tp,s1,a3
   1194c:	00d4823b          	addw	tp,s1,a3
   11950:	00d4823b          	addw	tp,s1,a3
   11954:	00d4823b          	addw	tp,s1,a3
   11958:	00d4823b          	addw	tp,s1,a3
   1195c:	00d4823b          	addw	tp,s1,a3
   11960:	00d4823b          	addw	tp,s1,a3
   11964:	00d4823b          	addw	tp,s1,a3
   11968:	00d4823b          	addw	tp,s1,a3
   1196c:	00d4823b          	addw	tp,s1,a3
   11970:	00d4823b          	addw	tp,s1,a3
   11974:	00d4823b          	addw	tp,s1,a3
   11978:	00d4823b          	addw	tp,s1,a3
   1197c:	00d4823b          	addw	tp,s1,a3
   11980:	00d4823b          	addw	tp,s1,a3
   11984:	00d4823b          	addw	tp,s1,a3
   11988:	00d4823b          	addw	tp,s1,a3
   1198c:	00d4823b          	addw	tp,s1,a3
   11990:	00d4823b          	addw	tp,s1,a3
   11994:	00d4823b          	addw	tp,s1,a3
   11998:	00d4823b          	addw	tp,s1,a3
   1199c:	00d4823b          	addw	tp,s1,a3
   119a0:	00d4823b          	addw	tp,s1,a3
   119a4:	00d4823b          	addw	tp,s1,a3
   119a8:	00d4823b          	addw	tp,s1,a3
   119ac:	00d4823b          	addw	tp,s1,a3
   119b0:	00d4823b          	addw	tp,s1,a3
   119b4:	00d4823b          	addw	tp,s1,a3
   119b8:	00d4823b          	addw	tp,s1,a3
   119bc:	00d4823b          	addw	tp,s1,a3
   119c0:	00d4823b          	addw	tp,s1,a3
   119c4:	00d4823b          	addw	tp,s1,a3
   119c8:	00d4823b          	addw	tp,s1,a3
   119cc:	00d4823b          	addw	tp,s1,a3
   119d0:	00d4823b          	addw	tp,s1,a3
   119d4:	00d4823b          	addw	tp,s1,a3
   119d8:	00d4823b          	addw	tp,s1,a3
   119dc:	00d4823b          	addw	tp,s1,a3
   119e0:	00d4823b          	addw	tp,s1,a3
   119e4:	00d4823b          	addw	tp,s1,a3
   119e8:	00d4823b          	addw	tp,s1,a3
   119ec:	00d4823b          	addw	tp,s1,a3
   119f0:	00d4823b          	addw	tp,s1,a3
   119f4:	00d4823b          	addw	tp,s1,a3
   119f8:	00d4823b          	addw	tp,s1,a3
   119fc:	00d4823b          	addw	tp,s1,a3
   11a00:	00d4823b          	addw	tp,s1,a3
   11a04:	00d4823b          	addw	tp,s1,a3
   11a08:	00d4823b          	addw	tp,s1,a3
   11a0c:	00d4823b          	addw	tp,s1,a3
   11a10:	00d4823b          	addw	tp,s1,a3
   11a14:	00d4823b          	addw	tp,s1,a3
   11a18:	00d4823b          	addw	tp,s1,a3
   11a1c:	00d4823b          	addw	tp,s1,a3
   11a20:	00d4823b          	addw	tp,s1,a3
   11a24:	00d4823b          	addw	tp,s1,a3
   11a28:	00d4823b          	addw	tp,s1,a3
   11a2c:	00d4823b          	addw	tp,s1,a3
   11a30:	00d4823b          	addw	tp,s1,a3
   11a34:	00d4823b          	addw	tp,s1,a3
   11a38:	00d4823b          	addw	tp,s1,a3
   11a3c:	00d4823b          	addw	tp,s1,a3
   11a40:	00d4823b          	addw	tp,s1,a3
   11a44:	00d4823b          	addw	tp,s1,a3
   11a48:	00d4823b          	addw	tp,s1,a3
   11a4c:	00d4823b          	addw	tp,s1,a3
   11a50:	00d4823b          	addw	tp,s1,a3
   11a54:	00d4823b          	addw	tp,s1,a3
   11a58:	00d4823b          	addw	tp,s1,a3
   11a5c:	00d4823b          	addw	tp,s1,a3
   11a60:	00d4823b          	addw	tp,s1,a3
   11a64:	00d4823b          	addw	tp,s1,a3
   11a68:	00d4823b          	addw	tp,s1,a3
   11a6c:	00d4823b          	addw	tp,s1,a3
   11a70:	00d4823b          	addw	tp,s1,a3
   11a74:	00d4823b          	addw	tp,s1,a3
   11a78:	00d4823b          	addw	tp,s1,a3
   11a7c:	00d4823b          	addw	tp,s1,a3
   11a80:	00d4823b          	addw	tp,s1,a3
   11a84:	00d4823b          	addw	tp,s1,a3
   11a88:	00d4823b          	addw	tp,s1,a3
   11a8c:	00d4823b          	addw	tp,s1,a3
   11a90:	00d4823b          	addw	tp,s1,a3
   11a94:	00d4823b          	addw	tp,s1,a3
   11a98:	00d4823b          	addw	tp,s1,a3
   11a9c:	00d4823b          	addw	tp,s1,a3
   11aa0:	00d4823b          	addw	tp,s1,a3
   11aa4:	00d4823b          	addw	tp,s1,a3
   11aa8:	00d4823b          	addw	tp,s1,a3
   11aac:	00d4823b          	addw	tp,s1,a3
   11ab0:	00d4823b          	addw	tp,s1,a3
   11ab4:	00d4823b          	addw	tp,s1,a3
   11ab8:	00d4823b          	addw	tp,s1,a3
   11abc:	00d4823b          	addw	tp,s1,a3
   11ac0:	00d4823b          	addw	tp,s1,a3
   11ac4:	00d4823b          	addw	tp,s1,a3
   11ac8:	00d4823b          	addw	tp,s1,a3
   11acc:	00d4823b          	addw	tp,s1,a3
   11ad0:	00d4823b          	addw	tp,s1,a3
   11ad4:	00d4823b          	addw	tp,s1,a3
   11ad8:	00d4823b          	addw	tp,s1,a3
   11adc:	00d4823b          	addw	tp,s1,a3
   11ae0:	00d4823b          	addw	tp,s1,a3
   11ae4:	00d4823b          	addw	tp,s1,a3
   11ae8:	00d4823b          	addw	tp,s1,a3
   11aec:	00d4823b          	addw	tp,s1,a3
   11af0:	00d4823b          	addw	tp,s1,a3
   11af4:	00d4823b          	addw	tp,s1,a3
   11af8:	00d4823b          	addw	tp,s1,a3
   11afc:	00d4823b          	addw	tp,s1,a3
   11b00:	00d4823b          	addw	tp,s1,a3
   11b04:	00d4823b          	addw	tp,s1,a3
   11b08:	00d4823b          	addw	tp,s1,a3
   11b0c:	00d4823b          	addw	tp,s1,a3
   11b10:	00d4823b          	addw	tp,s1,a3
   11b14:	00d4823b          	addw	tp,s1,a3
   11b18:	00d4823b          	addw	tp,s1,a3
   11b1c:	00d4823b          	addw	tp,s1,a3
   11b20:	00d4823b          	addw	tp,s1,a3
   11b24:	00d4823b          	addw	tp,s1,a3
   11b28:	00d4823b          	addw	tp,s1,a3
   11b2c:	00d4823b          	addw	tp,s1,a3
   11b30:	00d4823b          	addw	tp,s1,a3
   11b34:	00d4823b          	addw	tp,s1,a3
   11b38:	00d4823b          	addw	tp,s1,a3
   11b3c:	00d4823b          	addw	tp,s1,a3
   11b40:	00d4823b          	addw	tp,s1,a3
   11b44:	00d4823b          	addw	tp,s1,a3
   11b48:	00d4823b          	addw	tp,s1,a3
   11b4c:	00d4823b          	addw	tp,s1,a3
   11b50:	00d4823b          	addw	tp,s1,a3
   11b54:	00d4823b          	addw	tp,s1,a3
   11b58:	00d4823b          	addw	tp,s1,a3
   11b5c:	00d4823b          	addw	tp,s1,a3
   11b60:	00d4823b          	addw	tp,s1,a3
   11b64:	00d4823b          	addw	tp,s1,a3
   11b68:	00d4823b          	addw	tp,s1,a3
   11b6c:	00d4823b          	addw	tp,s1,a3
   11b70:	00d4823b          	addw	tp,s1,a3
   11b74:	00d4823b          	addw	tp,s1,a3
   11b78:	00d4823b          	addw	tp,s1,a3
   11b7c:	00d4823b          	addw	tp,s1,a3
   11b80:	00d4823b          	addw	tp,s1,a3
   11b84:	00d4823b          	addw	tp,s1,a3
   11b88:	00d4823b          	addw	tp,s1,a3
   11b8c:	00d4823b          	addw	tp,s1,a3
   11b90:	00d4823b          	addw	tp,s1,a3
   11b94:	00d4823b          	addw	tp,s1,a3
   11b98:	00d4823b          	addw	tp,s1,a3
   11b9c:	00d4823b          	addw	tp,s1,a3
   11ba0:	00d4823b          	addw	tp,s1,a3
   11ba4:	00d4823b          	addw	tp,s1,a3
   11ba8:	00d4823b          	addw	tp,s1,a3
   11bac:	00d4823b          	addw	tp,s1,a3
   11bb0:	00d4823b          	addw	tp,s1,a3
   11bb4:	00d4823b          	addw	tp,s1,a3
   11bb8:	00d4823b          	addw	tp,s1,a3
   11bbc:	00d4823b          	addw	tp,s1,a3
   11bc0:	00d4823b          	addw	tp,s1,a3
   11bc4:	00d4823b          	addw	tp,s1,a3
   11bc8:	00d4823b          	addw	tp,s1,a3
   11bcc:	00d4823b          	addw	tp,s1,a3
   11bd0:	00d4823b          	addw	tp,s1,a3
   11bd4:	00d4823b          	addw	tp,s1,a3
   11bd8:	00d4823b          	addw	tp,s1,a3
   11bdc:	00d4823b          	addw	tp,s1,a3
   11be0:	00d4823b          	addw	tp,s1,a3
   11be4:	00d4823b          	addw	tp,s1,a3
   11be8:	00d4823b          	addw	tp,s1,a3
   11bec:	00d4823b          	addw	tp,s1,a3
   11bf0:	00d4823b          	addw	tp,s1,a3
   11bf4:	00d4823b          	addw	tp,s1,a3
   11bf8:	00d4823b          	addw	tp,s1,a3
   11bfc:	00d4823b          	addw	tp,s1,a3
   11c00:	00d4823b          	addw	tp,s1,a3
   11c04:	00d4823b          	addw	tp,s1,a3
   11c08:	00d4823b          	addw	tp,s1,a3
   11c0c:	00d4823b          	addw	tp,s1,a3
   11c10:	00d4823b          	addw	tp,s1,a3
   11c14:	00d4823b          	addw	tp,s1,a3
   11c18:	00d4823b          	addw	tp,s1,a3
   11c1c:	00d4823b          	addw	tp,s1,a3
   11c20:	00d4823b          	addw	tp,s1,a3
   11c24:	00d4823b          	addw	tp,s1,a3
   11c28:	00d4823b          	addw	tp,s1,a3
   11c2c:	00d4823b          	addw	tp,s1,a3
   11c30:	00d4823b          	addw	tp,s1,a3
   11c34:	00d4823b          	addw	tp,s1,a3
   11c38:	00d4823b          	addw	tp,s1,a3
   11c3c:	00d4823b          	addw	tp,s1,a3
   11c40:	00d4823b          	addw	tp,s1,a3
   11c44:	00d4823b          	addw	tp,s1,a3
   11c48:	00d4823b          	addw	tp,s1,a3
   11c4c:	00d4823b          	addw	tp,s1,a3
   11c50:	00d4823b          	addw	tp,s1,a3
   11c54:	00d4823b          	addw	tp,s1,a3
   11c58:	00d4823b          	addw	tp,s1,a3
   11c5c:	00d4823b          	addw	tp,s1,a3
   11c60:	00d4823b          	addw	tp,s1,a3
   11c64:	00d4823b          	addw	tp,s1,a3
   11c68:	00d4823b          	addw	tp,s1,a3
   11c6c:	00d4823b          	addw	tp,s1,a3
   11c70:	00d4823b          	addw	tp,s1,a3
   11c74:	00d4823b          	addw	tp,s1,a3
   11c78:	00d4823b          	addw	tp,s1,a3
   11c7c:	00d4823b          	addw	tp,s1,a3
   11c80:	00d4823b          	addw	tp,s1,a3
   11c84:	00d4823b          	addw	tp,s1,a3
   11c88:	00d4823b          	addw	tp,s1,a3
   11c8c:	00d4823b          	addw	tp,s1,a3
   11c90:	00d4823b          	addw	tp,s1,a3
   11c94:	00d4823b          	addw	tp,s1,a3
   11c98:	00d4823b          	addw	tp,s1,a3
   11c9c:	00d4823b          	addw	tp,s1,a3
   11ca0:	00d4823b          	addw	tp,s1,a3
   11ca4:	00d4823b          	addw	tp,s1,a3
   11ca8:	00d4823b          	addw	tp,s1,a3
   11cac:	00d4823b          	addw	tp,s1,a3
   11cb0:	00d4823b          	addw	tp,s1,a3
   11cb4:	00d4823b          	addw	tp,s1,a3
   11cb8:	00d4823b          	addw	tp,s1,a3
   11cbc:	00d4823b          	addw	tp,s1,a3
   11cc0:	00d4823b          	addw	tp,s1,a3
   11cc4:	00d4823b          	addw	tp,s1,a3
   11cc8:	00d4823b          	addw	tp,s1,a3
   11ccc:	00d4823b          	addw	tp,s1,a3
   11cd0:	00d4823b          	addw	tp,s1,a3
   11cd4:	00d4823b          	addw	tp,s1,a3
   11cd8:	00d4823b          	addw	tp,s1,a3
   11cdc:	00d4823b          	addw	tp,s1,a3
   11ce0:	00d4823b          	addw	tp,s1,a3
   11ce4:	00d4823b          	addw	tp,s1,a3
   11ce8:	00d4823b          	addw	tp,s1,a3
   11cec:	00d4823b          	addw	tp,s1,a3
   11cf0:	00d4823b          	addw	tp,s1,a3
   11cf4:	00d4823b          	addw	tp,s1,a3
   11cf8:	00d4823b          	addw	tp,s1,a3
   11cfc:	00d4823b          	addw	tp,s1,a3
   11d00:	00d4823b          	addw	tp,s1,a3
   11d04:	00d4823b          	addw	tp,s1,a3
   11d08:	00d4823b          	addw	tp,s1,a3
   11d0c:	00d4823b          	addw	tp,s1,a3
   11d10:	00d4823b          	addw	tp,s1,a3
   11d14:	00d4823b          	addw	tp,s1,a3
   11d18:	00d4823b          	addw	tp,s1,a3
   11d1c:	00d4823b          	addw	tp,s1,a3
   11d20:	00d4823b          	addw	tp,s1,a3
   11d24:	00d4823b          	addw	tp,s1,a3
   11d28:	00d4823b          	addw	tp,s1,a3
   11d2c:	00d4823b          	addw	tp,s1,a3
   11d30:	00d4823b          	addw	tp,s1,a3
   11d34:	00d4823b          	addw	tp,s1,a3
   11d38:	00d4823b          	addw	tp,s1,a3
   11d3c:	00d4823b          	addw	tp,s1,a3
   11d40:	00d4823b          	addw	tp,s1,a3
   11d44:	00d4823b          	addw	tp,s1,a3
   11d48:	00d4823b          	addw	tp,s1,a3
   11d4c:	00d4823b          	addw	tp,s1,a3
   11d50:	00d4823b          	addw	tp,s1,a3
   11d54:	00d4823b          	addw	tp,s1,a3
   11d58:	00d4823b          	addw	tp,s1,a3
   11d5c:	00d4823b          	addw	tp,s1,a3
   11d60:	00d4823b          	addw	tp,s1,a3
   11d64:	00d4823b          	addw	tp,s1,a3
   11d68:	00d4823b          	addw	tp,s1,a3
   11d6c:	00d4823b          	addw	tp,s1,a3
   11d70:	00d4823b          	addw	tp,s1,a3
   11d74:	00d4823b          	addw	tp,s1,a3
   11d78:	00d4823b          	addw	tp,s1,a3
   11d7c:	00d4823b          	addw	tp,s1,a3
   11d80:	00d4823b          	addw	tp,s1,a3
   11d84:	00d4823b          	addw	tp,s1,a3
   11d88:	00d4823b          	addw	tp,s1,a3
   11d8c:	00d4823b          	addw	tp,s1,a3
   11d90:	00d4823b          	addw	tp,s1,a3
   11d94:	00d4823b          	addw	tp,s1,a3
   11d98:	00d4823b          	addw	tp,s1,a3
   11d9c:	00d4823b          	addw	tp,s1,a3
   11da0:	00d4823b          	addw	tp,s1,a3
   11da4:	00d4823b          	addw	tp,s1,a3
   11da8:	00d4823b          	addw	tp,s1,a3
   11dac:	00d4823b          	addw	tp,s1,a3
   11db0:	00d4823b          	addw	tp,s1,a3
   11db4:	00d4823b          	addw	tp,s1,a3
   11db8:	00d4823b          	addw	tp,s1,a3
   11dbc:	00d4823b          	addw	tp,s1,a3
   11dc0:	00d4823b          	addw	tp,s1,a3
   11dc4:	00d4823b          	addw	tp,s1,a3
   11dc8:	00d4823b          	addw	tp,s1,a3
   11dcc:	00d4823b          	addw	tp,s1,a3
   11dd0:	00d4823b          	addw	tp,s1,a3
   11dd4:	00d4823b          	addw	tp,s1,a3
   11dd8:	00d4823b          	addw	tp,s1,a3
   11ddc:	00d4823b          	addw	tp,s1,a3
   11de0:	00d4823b          	addw	tp,s1,a3
   11de4:	00d4823b          	addw	tp,s1,a3
   11de8:	00d4823b          	addw	tp,s1,a3
   11dec:	00d4823b          	addw	tp,s1,a3
   11df0:	00d4823b          	addw	tp,s1,a3
   11df4:	00d4823b          	addw	tp,s1,a3
   11df8:	00d4823b          	addw	tp,s1,a3
   11dfc:	00d4823b          	addw	tp,s1,a3
   11e00:	00d4823b          	addw	tp,s1,a3
   11e04:	00d4823b          	addw	tp,s1,a3
   11e08:	00d4823b          	addw	tp,s1,a3
   11e0c:	00d4823b          	addw	tp,s1,a3
   11e10:	00d4823b          	addw	tp,s1,a3
   11e14:	00d4823b          	addw	tp,s1,a3
   11e18:	00d4823b          	addw	tp,s1,a3
   11e1c:	00d4823b          	addw	tp,s1,a3
   11e20:	00d4823b          	addw	tp,s1,a3
   11e24:	00d4823b          	addw	tp,s1,a3
   11e28:	00d4823b          	addw	tp,s1,a3
   11e2c:	00d4823b          	addw	tp,s1,a3
   11e30:	00d4823b          	addw	tp,s1,a3
   11e34:	00d4823b          	addw	tp,s1,a3
   11e38:	00d4823b          	addw	tp,s1,a3
   11e3c:	00d4823b          	addw	tp,s1,a3
   11e40:	00d4823b          	addw	tp,s1,a3
   11e44:	00d4823b          	addw	tp,s1,a3
   11e48:	00d4823b          	addw	tp,s1,a3
   11e4c:	00d4823b          	addw	tp,s1,a3
   11e50:	00d4823b          	addw	tp,s1,a3
   11e54:	00d4823b          	addw	tp,s1,a3
   11e58:	00d4823b          	addw	tp,s1,a3
   11e5c:	00d4823b          	addw	tp,s1,a3
   11e60:	00d4823b          	addw	tp,s1,a3
   11e64:	00d4823b          	addw	tp,s1,a3
   11e68:	00d4823b          	addw	tp,s1,a3
   11e6c:	00d4823b          	addw	tp,s1,a3
   11e70:	00d4823b          	addw	tp,s1,a3
   11e74:	00d4823b          	addw	tp,s1,a3
   11e78:	00d4823b          	addw	tp,s1,a3
   11e7c:	00d4823b          	addw	tp,s1,a3
   11e80:	00d4823b          	addw	tp,s1,a3
   11e84:	00d4823b          	addw	tp,s1,a3
   11e88:	00d4823b          	addw	tp,s1,a3
   11e8c:	00d4823b          	addw	tp,s1,a3
   11e90:	00d4823b          	addw	tp,s1,a3
   11e94:	00d4823b          	addw	tp,s1,a3
   11e98:	00d4823b          	addw	tp,s1,a3
   11e9c:	00d4823b          	addw	tp,s1,a3
   11ea0:	00d4823b          	addw	tp,s1,a3
   11ea4:	00d4823b          	addw	tp,s1,a3
   11ea8:	00d4823b          	addw	tp,s1,a3
   11eac:	00d4823b          	addw	tp,s1,a3
   11eb0:	00d4823b          	addw	tp,s1,a3
   11eb4:	00d4823b          	addw	tp,s1,a3
   11eb8:	00d4823b          	addw	tp,s1,a3
   11ebc:	00d4823b          	addw	tp,s1,a3
   11ec0:	00d4823b          	addw	tp,s1,a3
   11ec4:	00d4823b          	addw	tp,s1,a3
   11ec8:	00d4823b          	addw	tp,s1,a3
   11ecc:	00d4823b          	addw	tp,s1,a3
   11ed0:	00d4823b          	addw	tp,s1,a3
   11ed4:	00d4823b          	addw	tp,s1,a3
   11ed8:	00d4823b          	addw	tp,s1,a3
   11edc:	00d4823b          	addw	tp,s1,a3
   11ee0:	00d4823b          	addw	tp,s1,a3
   11ee4:	00d4823b          	addw	tp,s1,a3
   11ee8:	00d4823b          	addw	tp,s1,a3
   11eec:	00d4823b          	addw	tp,s1,a3
   11ef0:	00d4823b          	addw	tp,s1,a3
   11ef4:	00d4823b          	addw	tp,s1,a3
   11ef8:	00d4823b          	addw	tp,s1,a3
   11efc:	00d4823b          	addw	tp,s1,a3
   11f00:	00d4823b          	addw	tp,s1,a3
   11f04:	00d4823b          	addw	tp,s1,a3
   11f08:	00d4823b          	addw	tp,s1,a3
   11f0c:	00d4823b          	addw	tp,s1,a3
   11f10:	00d4823b          	addw	tp,s1,a3
   11f14:	00d4823b          	addw	tp,s1,a3
   11f18:	00d4823b          	addw	tp,s1,a3
   11f1c:	00d4823b          	addw	tp,s1,a3
   11f20:	00d4823b          	addw	tp,s1,a3
   11f24:	00d4823b          	addw	tp,s1,a3
   11f28:	00d4823b          	addw	tp,s1,a3
   11f2c:	00d4823b          	addw	tp,s1,a3
   11f30:	00d4823b          	addw	tp,s1,a3
   11f34:	00d4823b          	addw	tp,s1,a3
   11f38:	00d4823b          	addw	tp,s1,a3
   11f3c:	00d4823b          	addw	tp,s1,a3
   11f40:	00d4823b          	addw	tp,s1,a3
   11f44:	00d4823b          	addw	tp,s1,a3
   11f48:	00d4823b          	addw	tp,s1,a3
   11f4c:	00d4823b          	addw	tp,s1,a3
   11f50:	00d4823b          	addw	tp,s1,a3
   11f54:	00d4823b          	addw	tp,s1,a3
   11f58:	00d4823b          	addw	tp,s1,a3
   11f5c:	00d4823b          	addw	tp,s1,a3
   11f60:	00d4823b          	addw	tp,s1,a3
   11f64:	00d4823b          	addw	tp,s1,a3
   11f68:	00d4823b          	addw	tp,s1,a3
   11f6c:	00d4823b          	addw	tp,s1,a3
   11f70:	00d4823b          	addw	tp,s1,a3
   11f74:	00d4823b          	addw	tp,s1,a3
   11f78:	00d4823b          	addw	tp,s1,a3
   11f7c:	00d4823b          	addw	tp,s1,a3
   11f80:	00d4823b          	addw	tp,s1,a3
   11f84:	00d4823b          	addw	tp,s1,a3
   11f88:	00d4823b          	addw	tp,s1,a3
   11f8c:	00d4823b          	addw	tp,s1,a3
   11f90:	00d4823b          	addw	tp,s1,a3
   11f94:	00d4823b          	addw	tp,s1,a3
   11f98:	00d4823b          	addw	tp,s1,a3
   11f9c:	00d4823b          	addw	tp,s1,a3
   11fa0:	00d4823b          	addw	tp,s1,a3
   11fa4:	00d4823b          	addw	tp,s1,a3
   11fa8:	00d4823b          	addw	tp,s1,a3
   11fac:	00d4823b          	addw	tp,s1,a3
   11fb0:	00d4823b          	addw	tp,s1,a3
   11fb4:	00d4823b          	addw	tp,s1,a3
   11fb8:	00d4823b          	addw	tp,s1,a3
   11fbc:	00d4823b          	addw	tp,s1,a3
   11fc0:	00d4823b          	addw	tp,s1,a3
   11fc4:	00d4823b          	addw	tp,s1,a3
   11fc8:	00d4823b          	addw	tp,s1,a3
   11fcc:	00d4823b          	addw	tp,s1,a3
   11fd0:	00d4823b          	addw	tp,s1,a3
   11fd4:	00d4823b          	addw	tp,s1,a3
   11fd8:	00d4823b          	addw	tp,s1,a3
   11fdc:	00d4823b          	addw	tp,s1,a3
   11fe0:	00d4823b          	addw	tp,s1,a3
   11fe4:	00d4823b          	addw	tp,s1,a3
   11fe8:	00d4823b          	addw	tp,s1,a3
   11fec:	00d4823b          	addw	tp,s1,a3
   11ff0:	00d4823b          	addw	tp,s1,a3
   11ff4:	00d4823b          	addw	tp,s1,a3
   11ff8:	00d4823b          	addw	tp,s1,a3
   11ffc:	00d4823b          	addw	tp,s1,a3
   12000:	00d4823b          	addw	tp,s1,a3
   12004:	00d4823b          	addw	tp,s1,a3
   12008:	00d4823b          	addw	tp,s1,a3
   1200c:	00d4823b          	addw	tp,s1,a3
   12010:	00d4823b          	addw	tp,s1,a3
   12014:	00d4823b          	addw	tp,s1,a3
   12018:	00d4823b          	addw	tp,s1,a3
   1201c:	00d4823b          	addw	tp,s1,a3
   12020:	00d4823b          	addw	tp,s1,a3
   12024:	00d4823b          	addw	tp,s1,a3
   12028:	00d4823b          	addw	tp,s1,a3
   1202c:	00d4823b          	addw	tp,s1,a3
   12030:	00d4823b          	addw	tp,s1,a3
   12034:	00d4823b          	addw	tp,s1,a3
   12038:	00d4823b          	addw	tp,s1,a3
   1203c:	00d4823b          	addw	tp,s1,a3
   12040:	00d4823b          	addw	tp,s1,a3
   12044:	00d4823b          	addw	tp,s1,a3
   12048:	00d4823b          	addw	tp,s1,a3
   1204c:	00d4823b          	addw	tp,s1,a3
   12050:	00d4823b          	addw	tp,s1,a3
   12054:	00d4823b          	addw	tp,s1,a3
   12058:	00d4823b          	addw	tp,s1,a3
   1205c:	00d4823b          	addw	tp,s1,a3
   12060:	00d4823b          	addw	tp,s1,a3
   12064:	00d4823b          	addw	tp,s1,a3
   12068:	00d4823b          	addw	tp,s1,a3
   1206c:	00d4823b          	addw	tp,s1,a3
   12070:	00d4823b          	addw	tp,s1,a3
   12074:	00d4823b          	addw	tp,s1,a3
   12078:	00d4823b          	addw	tp,s1,a3
   1207c:	00d4823b          	addw	tp,s1,a3
   12080:	00d4823b          	addw	tp,s1,a3
   12084:	00d4823b          	addw	tp,s1,a3
   12088:	00d4823b          	addw	tp,s1,a3
   1208c:	00d4823b          	addw	tp,s1,a3
   12090:	00d4823b          	addw	tp,s1,a3
   12094:	00d4823b          	addw	tp,s1,a3
   12098:	00d4823b          	addw	tp,s1,a3
   1209c:	00d4823b          	addw	tp,s1,a3
   120a0:	00d4823b          	addw	tp,s1,a3
   120a4:	00d4823b          	addw	tp,s1,a3
   120a8:	00d4823b          	addw	tp,s1,a3
   120ac:	00d4823b          	addw	tp,s1,a3
   120b0:	00d4823b          	addw	tp,s1,a3
   120b4:	00d4823b          	addw	tp,s1,a3
   120b8:	00d4823b          	addw	tp,s1,a3
   120bc:	00d4823b          	addw	tp,s1,a3
   120c0:	00d4823b          	addw	tp,s1,a3
   120c4:	00d4823b          	addw	tp,s1,a3
   120c8:	00d4823b          	addw	tp,s1,a3
   120cc:	00d4823b          	addw	tp,s1,a3
   120d0:	00d4823b          	addw	tp,s1,a3
   120d4:	00d4823b          	addw	tp,s1,a3
   120d8:	00d4823b          	addw	tp,s1,a3
   120dc:	00d4823b          	addw	tp,s1,a3
   120e0:	00d4823b          	addw	tp,s1,a3
   120e4:	00d4823b          	addw	tp,s1,a3
   120e8:	00d4823b          	addw	tp,s1,a3
   120ec:	00d4823b          	addw	tp,s1,a3
   120f0:	00d4823b          	addw	tp,s1,a3
   120f4:	00d4823b          	addw	tp,s1,a3
   120f8:	00d4823b          	addw	tp,s1,a3
   120fc:	00d4823b          	addw	tp,s1,a3
   12100:	00d4823b          	addw	tp,s1,a3
   12104:	00d4823b          	addw	tp,s1,a3
   12108:	00d4823b          	addw	tp,s1,a3
   1210c:	00d4823b          	addw	tp,s1,a3
   12110:	00d4823b          	addw	tp,s1,a3
   12114:	00d4823b          	addw	tp,s1,a3
   12118:	00d4823b          	addw	tp,s1,a3
   1211c:	00d4823b          	addw	tp,s1,a3
   12120:	00d4823b          	addw	tp,s1,a3
   12124:	00d4823b          	addw	tp,s1,a3
   12128:	00d4823b          	addw	tp,s1,a3
   1212c:	00d4823b          	addw	tp,s1,a3
   12130:	00d4823b          	addw	tp,s1,a3
   12134:	00d4823b          	addw	tp,s1,a3
   12138:	00d4823b          	addw	tp,s1,a3
   1213c:	00d4823b          	addw	tp,s1,a3
   12140:	00d4823b          	addw	tp,s1,a3
   12144:	00d4823b          	addw	tp,s1,a3
   12148:	00d4823b          	addw	tp,s1,a3
   1214c:	00d4823b          	addw	tp,s1,a3
   12150:	00d4823b          	addw	tp,s1,a3
   12154:	00d4823b          	addw	tp,s1,a3
   12158:	00d4823b          	addw	tp,s1,a3
   1215c:	00d4823b          	addw	tp,s1,a3
   12160:	00d4823b          	addw	tp,s1,a3
   12164:	00d4823b          	addw	tp,s1,a3
   12168:	00d4823b          	addw	tp,s1,a3
   1216c:	00d4823b          	addw	tp,s1,a3
   12170:	00d4823b          	addw	tp,s1,a3
   12174:	00d4823b          	addw	tp,s1,a3
   12178:	00d4823b          	addw	tp,s1,a3
   1217c:	00d4823b          	addw	tp,s1,a3
   12180:	00d4823b          	addw	tp,s1,a3
   12184:	00d4823b          	addw	tp,s1,a3
   12188:	00d4823b          	addw	tp,s1,a3
   1218c:	00d4823b          	addw	tp,s1,a3
   12190:	00d4823b          	addw	tp,s1,a3
   12194:	00d4823b          	addw	tp,s1,a3
   12198:	00d4823b          	addw	tp,s1,a3
   1219c:	00d4823b          	addw	tp,s1,a3
   121a0:	00d4823b          	addw	tp,s1,a3
   121a4:	00d4823b          	addw	tp,s1,a3
   121a8:	00d4823b          	addw	tp,s1,a3
   121ac:	00d4823b          	addw	tp,s1,a3
   121b0:	00d4823b          	addw	tp,s1,a3
   121b4:	00d4823b          	addw	tp,s1,a3
   121b8:	00d4823b          	addw	tp,s1,a3
   121bc:	00d4823b          	addw	tp,s1,a3
   121c0:	00d4823b          	addw	tp,s1,a3
   121c4:	00d4823b          	addw	tp,s1,a3
   121c8:	00d4823b          	addw	tp,s1,a3
   121cc:	00d4823b          	addw	tp,s1,a3
   121d0:	00d4823b          	addw	tp,s1,a3
   121d4:	00d4823b          	addw	tp,s1,a3
   121d8:	00d4823b          	addw	tp,s1,a3
   121dc:	00d4823b          	addw	tp,s1,a3
   121e0:	00d4823b          	addw	tp,s1,a3
   121e4:	00d4823b          	addw	tp,s1,a3
   121e8:	00d4823b          	addw	tp,s1,a3
   121ec:	00d4823b          	addw	tp,s1,a3
   121f0:	00d4823b          	addw	tp,s1,a3
   121f4:	00d4823b          	addw	tp,s1,a3
   121f8:	00d4823b          	addw	tp,s1,a3
   121fc:	00d4823b          	addw	tp,s1,a3
   12200:	00d4823b          	addw	tp,s1,a3
   12204:	00d4823b          	addw	tp,s1,a3
   12208:	00d4823b          	addw	tp,s1,a3
   1220c:	00d4823b          	addw	tp,s1,a3
   12210:	00d4823b          	addw	tp,s1,a3
   12214:	00d4823b          	addw	tp,s1,a3
   12218:	00d4823b          	addw	tp,s1,a3
   1221c:	00d4823b          	addw	tp,s1,a3
   12220:	00d4823b          	addw	tp,s1,a3
   12224:	00d4823b          	addw	tp,s1,a3
   12228:	00d4823b          	addw	tp,s1,a3
   1222c:	00d4823b          	addw	tp,s1,a3
   12230:	00d4823b          	addw	tp,s1,a3
   12234:	00d4823b          	addw	tp,s1,a3
   12238:	00d4823b          	addw	tp,s1,a3
   1223c:	00d4823b          	addw	tp,s1,a3
   12240:	00d4823b          	addw	tp,s1,a3
   12244:	00d4823b          	addw	tp,s1,a3
   12248:	00d4823b          	addw	tp,s1,a3
   1224c:	00d4823b          	addw	tp,s1,a3
   12250:	00d4823b          	addw	tp,s1,a3
   12254:	00d4823b          	addw	tp,s1,a3
   12258:	00d4823b          	addw	tp,s1,a3
   1225c:	00d4823b          	addw	tp,s1,a3
   12260:	00d4823b          	addw	tp,s1,a3
   12264:	00d4823b          	addw	tp,s1,a3
   12268:	00d4823b          	addw	tp,s1,a3
   1226c:	00d4823b          	addw	tp,s1,a3
   12270:	00d4823b          	addw	tp,s1,a3
   12274:	00d4823b          	addw	tp,s1,a3
   12278:	00d4823b          	addw	tp,s1,a3
   1227c:	00d4823b          	addw	tp,s1,a3
   12280:	00d4823b          	addw	tp,s1,a3
   12284:	00d4823b          	addw	tp,s1,a3
   12288:	00d4823b          	addw	tp,s1,a3
   1228c:	00d4823b          	addw	tp,s1,a3
   12290:	00d4823b          	addw	tp,s1,a3
   12294:	00d4823b          	addw	tp,s1,a3
   12298:	00d4823b          	addw	tp,s1,a3
   1229c:	00d4823b          	addw	tp,s1,a3
   122a0:	00d4823b          	addw	tp,s1,a3
   122a4:	00d4823b          	addw	tp,s1,a3
   122a8:	00d4823b          	addw	tp,s1,a3
   122ac:	00d4823b          	addw	tp,s1,a3
   122b0:	00d4823b          	addw	tp,s1,a3
   122b4:	00d4823b          	addw	tp,s1,a3
   122b8:	00d4823b          	addw	tp,s1,a3
   122bc:	00d4823b          	addw	tp,s1,a3
   122c0:	00d4823b          	addw	tp,s1,a3
   122c4:	00d4823b          	addw	tp,s1,a3
   122c8:	00d4823b          	addw	tp,s1,a3
   122cc:	00d4823b          	addw	tp,s1,a3
   122d0:	00d4823b          	addw	tp,s1,a3
   122d4:	00d4823b          	addw	tp,s1,a3
   122d8:	00d4823b          	addw	tp,s1,a3
   122dc:	00d4823b          	addw	tp,s1,a3
   122e0:	00d4823b          	addw	tp,s1,a3
   122e4:	00d4823b          	addw	tp,s1,a3
   122e8:	00d4823b          	addw	tp,s1,a3
   122ec:	00d4823b          	addw	tp,s1,a3
   122f0:	00d4823b          	addw	tp,s1,a3
   122f4:	00d4823b          	addw	tp,s1,a3
   122f8:	00d4823b          	addw	tp,s1,a3
   122fc:	00d4823b          	addw	tp,s1,a3
   12300:	00d4823b          	addw	tp,s1,a3
   12304:	00d4823b          	addw	tp,s1,a3
   12308:	00d4823b          	addw	tp,s1,a3
   1230c:	00d4823b          	addw	tp,s1,a3
   12310:	00d4823b          	addw	tp,s1,a3
   12314:	00d4823b          	addw	tp,s1,a3
   12318:	00d4823b          	addw	tp,s1,a3
   1231c:	00d4823b          	addw	tp,s1,a3
   12320:	00d4823b          	addw	tp,s1,a3
   12324:	00d4823b          	addw	tp,s1,a3
   12328:	00d4823b          	addw	tp,s1,a3
   1232c:	00d4823b          	addw	tp,s1,a3
   12330:	00d4823b          	addw	tp,s1,a3
   12334:	00d4823b          	addw	tp,s1,a3
   12338:	00d4823b          	addw	tp,s1,a3
   1233c:	00d4823b          	addw	tp,s1,a3
   12340:	00d4823b          	addw	tp,s1,a3
   12344:	00d4823b          	addw	tp,s1,a3
   12348:	00d4823b          	addw	tp,s1,a3
   1234c:	00d4823b          	addw	tp,s1,a3
   12350:	00d4823b          	addw	tp,s1,a3
   12354:	00d4823b          	addw	tp,s1,a3
   12358:	00d4823b          	addw	tp,s1,a3
   1235c:	00d4823b          	addw	tp,s1,a3
   12360:	00d4823b          	addw	tp,s1,a3
   12364:	00d4823b          	addw	tp,s1,a3
   12368:	00d4823b          	addw	tp,s1,a3
   1236c:	00d4823b          	addw	tp,s1,a3
   12370:	00d4823b          	addw	tp,s1,a3
   12374:	00d4823b          	addw	tp,s1,a3
   12378:	00d4823b          	addw	tp,s1,a3
   1237c:	00d4823b          	addw	tp,s1,a3
   12380:	00d4823b          	addw	tp,s1,a3
   12384:	00d4823b          	addw	tp,s1,a3
   12388:	00d4823b          	addw	tp,s1,a3
   1238c:	00d4823b          	addw	tp,s1,a3
   12390:	00d4823b          	addw	tp,s1,a3
   12394:	00d4823b          	addw	tp,s1,a3
   12398:	00d4823b          	addw	tp,s1,a3
   1239c:	00d4823b          	addw	tp,s1,a3
   123a0:	00d4823b          	addw	tp,s1,a3
   123a4:	00d4823b          	addw	tp,s1,a3
   123a8:	00d4823b          	addw	tp,s1,a3
   123ac:	00d4823b          	addw	tp,s1,a3
   123b0:	00d4823b          	addw	tp,s1,a3
   123b4:	00d4823b          	addw	tp,s1,a3
   123b8:	00d4823b          	addw	tp,s1,a3
   123bc:	00d4823b          	addw	tp,s1,a3
   123c0:	00d4823b          	addw	tp,s1,a3
   123c4:	00d4823b          	addw	tp,s1,a3
   123c8:	00d4823b          	addw	tp,s1,a3
   123cc:	00d4823b          	addw	tp,s1,a3
   123d0:	00d4823b          	addw	tp,s1,a3
   123d4:	00d4823b          	addw	tp,s1,a3
   123d8:	00d4823b          	addw	tp,s1,a3
   123dc:	00d4823b          	addw	tp,s1,a3
   123e0:	00d4823b          	addw	tp,s1,a3
   123e4:	00d4823b          	addw	tp,s1,a3
   123e8:	00d4823b          	addw	tp,s1,a3
   123ec:	00d4823b          	addw	tp,s1,a3
   123f0:	00d4823b          	addw	tp,s1,a3
   123f4:	00d4823b          	addw	tp,s1,a3
   123f8:	00d4823b          	addw	tp,s1,a3
   123fc:	00d4823b          	addw	tp,s1,a3
   12400:	00d4823b          	addw	tp,s1,a3
   12404:	00d4823b          	addw	tp,s1,a3
   12408:	00d4823b          	addw	tp,s1,a3
   1240c:	00d4823b          	addw	tp,s1,a3
   12410:	00d4823b          	addw	tp,s1,a3
   12414:	00d4823b          	addw	tp,s1,a3
   12418:	00d4823b          	addw	tp,s1,a3
   1241c:	00d4823b          	addw	tp,s1,a3
   12420:	00d4823b          	addw	tp,s1,a3
   12424:	00d4823b          	addw	tp,s1,a3
   12428:	00d4823b          	addw	tp,s1,a3
   1242c:	00d4823b          	addw	tp,s1,a3
   12430:	00d4823b          	addw	tp,s1,a3
   12434:	00d4823b          	addw	tp,s1,a3
   12438:	00d4823b          	addw	tp,s1,a3
   1243c:	00d4823b          	addw	tp,s1,a3
   12440:	00d4823b          	addw	tp,s1,a3
   12444:	00d4823b          	addw	tp,s1,a3
   12448:	00d4823b          	addw	tp,s1,a3
   1244c:	00d4823b          	addw	tp,s1,a3
   12450:	00d4823b          	addw	tp,s1,a3
   12454:	00d4823b          	addw	tp,s1,a3
   12458:	00d4823b          	addw	tp,s1,a3
   1245c:	00d4823b          	addw	tp,s1,a3
   12460:	00d4823b          	addw	tp,s1,a3
   12464:	00d4823b          	addw	tp,s1,a3
   12468:	00d4823b          	addw	tp,s1,a3
   1246c:	00d4823b          	addw	tp,s1,a3
   12470:	00d4823b          	addw	tp,s1,a3
   12474:	00d4823b          	addw	tp,s1,a3
   12478:	00d4823b          	addw	tp,s1,a3
   1247c:	00d4823b          	addw	tp,s1,a3
   12480:	00d4823b          	addw	tp,s1,a3
   12484:	00d4823b          	addw	tp,s1,a3
   12488:	00d4823b          	addw	tp,s1,a3
   1248c:	00d4823b          	addw	tp,s1,a3
   12490:	00d4823b          	addw	tp,s1,a3
   12494:	00d4823b          	addw	tp,s1,a3
   12498:	00d4823b          	addw	tp,s1,a3
   1249c:	00d4823b          	addw	tp,s1,a3
   124a0:	00d4823b          	addw	tp,s1,a3
   124a4:	00d4823b          	addw	tp,s1,a3
   124a8:	00d4823b          	addw	tp,s1,a3
   124ac:	00d4823b          	addw	tp,s1,a3
   124b0:	00d4823b          	addw	tp,s1,a3
   124b4:	00d4823b          	addw	tp,s1,a3
   124b8:	00d4823b          	addw	tp,s1,a3
   124bc:	00d4823b          	addw	tp,s1,a3
   124c0:	00d4823b          	addw	tp,s1,a3
   124c4:	00d4823b          	addw	tp,s1,a3
   124c8:	00d4823b          	addw	tp,s1,a3
   124cc:	00d4823b          	addw	tp,s1,a3
   124d0:	00d4823b          	addw	tp,s1,a3
   124d4:	00d4823b          	addw	tp,s1,a3
   124d8:	00d4823b          	addw	tp,s1,a3
   124dc:	00d4823b          	addw	tp,s1,a3
   124e0:	00d4823b          	addw	tp,s1,a3
   124e4:	00d4823b          	addw	tp,s1,a3
   124e8:	00d4823b          	addw	tp,s1,a3
   124ec:	00d4823b          	addw	tp,s1,a3
   124f0:	00d4823b          	addw	tp,s1,a3
   124f4:	00d4823b          	addw	tp,s1,a3
   124f8:	00d4823b          	addw	tp,s1,a3
   124fc:	00d4823b          	addw	tp,s1,a3
   12500:	00d4823b          	addw	tp,s1,a3
   12504:	00d4823b          	addw	tp,s1,a3
   12508:	00d4823b          	addw	tp,s1,a3
   1250c:	00d4823b          	addw	tp,s1,a3
   12510:	00d4823b          	addw	tp,s1,a3
   12514:	00d4823b          	addw	tp,s1,a3
   12518:	00d4823b          	addw	tp,s1,a3
   1251c:	00d4823b          	addw	tp,s1,a3
   12520:	00d4823b          	addw	tp,s1,a3
   12524:	00d4823b          	addw	tp,s1,a3
   12528:	00d4823b          	addw	tp,s1,a3
   1252c:	00d4823b          	addw	tp,s1,a3
   12530:	00d4823b          	addw	tp,s1,a3
   12534:	00d4823b          	addw	tp,s1,a3
   12538:	00d4823b          	addw	tp,s1,a3
   1253c:	00d4823b          	addw	tp,s1,a3
   12540:	00d4823b          	addw	tp,s1,a3
   12544:	00d4823b          	addw	tp,s1,a3
   12548:	00d4823b          	addw	tp,s1,a3
   1254c:	00d4823b          	addw	tp,s1,a3
   12550:	00d4823b          	addw	tp,s1,a3
   12554:	00d4823b          	addw	tp,s1,a3
   12558:	00d4823b          	addw	tp,s1,a3
   1255c:	00d4823b          	addw	tp,s1,a3
   12560:	00d4823b          	addw	tp,s1,a3
   12564:	00d4823b          	addw	tp,s1,a3
   12568:	00d4823b          	addw	tp,s1,a3
   1256c:	00d4823b          	addw	tp,s1,a3
   12570:	00d4823b          	addw	tp,s1,a3
   12574:	00d4823b          	addw	tp,s1,a3
   12578:	00d4823b          	addw	tp,s1,a3
   1257c:	00d4823b          	addw	tp,s1,a3
   12580:	00d4823b          	addw	tp,s1,a3
   12584:	00d4823b          	addw	tp,s1,a3
   12588:	00d4823b          	addw	tp,s1,a3
   1258c:	00d4823b          	addw	tp,s1,a3
   12590:	00d4823b          	addw	tp,s1,a3
   12594:	00d4823b          	addw	tp,s1,a3
   12598:	00d4823b          	addw	tp,s1,a3
   1259c:	00d4823b          	addw	tp,s1,a3
   125a0:	00d4823b          	addw	tp,s1,a3
   125a4:	00d4823b          	addw	tp,s1,a3
   125a8:	00d4823b          	addw	tp,s1,a3
   125ac:	00d4823b          	addw	tp,s1,a3
   125b0:	00d4823b          	addw	tp,s1,a3
   125b4:	00d4823b          	addw	tp,s1,a3
   125b8:	00d4823b          	addw	tp,s1,a3
   125bc:	00d4823b          	addw	tp,s1,a3
   125c0:	00d4823b          	addw	tp,s1,a3
   125c4:	00d4823b          	addw	tp,s1,a3
   125c8:	00d4823b          	addw	tp,s1,a3
   125cc:	00d4823b          	addw	tp,s1,a3
   125d0:	00d4823b          	addw	tp,s1,a3
   125d4:	00d4823b          	addw	tp,s1,a3
   125d8:	00d4823b          	addw	tp,s1,a3
   125dc:	00d4823b          	addw	tp,s1,a3
   125e0:	00d4823b          	addw	tp,s1,a3
   125e4:	00d4823b          	addw	tp,s1,a3
   125e8:	00d4823b          	addw	tp,s1,a3
   125ec:	00d4823b          	addw	tp,s1,a3
   125f0:	00d4823b          	addw	tp,s1,a3
   125f4:	00d4823b          	addw	tp,s1,a3
   125f8:	00d4823b          	addw	tp,s1,a3
   125fc:	00d4823b          	addw	tp,s1,a3
   12600:	00d4823b          	addw	tp,s1,a3
   12604:	00d4823b          	addw	tp,s1,a3
   12608:	00d4823b          	addw	tp,s1,a3
   1260c:	00d4823b          	addw	tp,s1,a3
   12610:	00d4823b          	addw	tp,s1,a3
   12614:	00d4823b          	addw	tp,s1,a3
   12618:	00d4823b          	addw	tp,s1,a3
   1261c:	00d4823b          	addw	tp,s1,a3
   12620:	00d4823b          	addw	tp,s1,a3
   12624:	00d4823b          	addw	tp,s1,a3
   12628:	00d4823b          	addw	tp,s1,a3
   1262c:	00d4823b          	addw	tp,s1,a3
   12630:	00d4823b          	addw	tp,s1,a3
   12634:	00d4823b          	addw	tp,s1,a3
   12638:	00d4823b          	addw	tp,s1,a3
   1263c:	00d4823b          	addw	tp,s1,a3
   12640:	00d4823b          	addw	tp,s1,a3
   12644:	00d4823b          	addw	tp,s1,a3
   12648:	00d4823b          	addw	tp,s1,a3
   1264c:	00d4823b          	addw	tp,s1,a3
   12650:	00d4823b          	addw	tp,s1,a3
   12654:	00d4823b          	addw	tp,s1,a3
   12658:	00d4823b          	addw	tp,s1,a3
   1265c:	00d4823b          	addw	tp,s1,a3
   12660:	00d4823b          	addw	tp,s1,a3
   12664:	00d4823b          	addw	tp,s1,a3
   12668:	00d4823b          	addw	tp,s1,a3
   1266c:	00d4823b          	addw	tp,s1,a3
   12670:	00d4823b          	addw	tp,s1,a3
   12674:	00d4823b          	addw	tp,s1,a3
   12678:	00d4823b          	addw	tp,s1,a3
   1267c:	00d4823b          	addw	tp,s1,a3
   12680:	00d4823b          	addw	tp,s1,a3
   12684:	00d4823b          	addw	tp,s1,a3
   12688:	00d4823b          	addw	tp,s1,a3
   1268c:	00d4823b          	addw	tp,s1,a3
   12690:	00d4823b          	addw	tp,s1,a3
   12694:	00d4823b          	addw	tp,s1,a3
   12698:	00d4823b          	addw	tp,s1,a3
   1269c:	00d4823b          	addw	tp,s1,a3
   126a0:	00d4823b          	addw	tp,s1,a3
   126a4:	00d4823b          	addw	tp,s1,a3
   126a8:	00d4823b          	addw	tp,s1,a3
   126ac:	00d4823b          	addw	tp,s1,a3
   126b0:	00d4823b          	addw	tp,s1,a3
   126b4:	00d4823b          	addw	tp,s1,a3
   126b8:	00d4823b          	addw	tp,s1,a3
   126bc:	00d4823b          	addw	tp,s1,a3
   126c0:	00d4823b          	addw	tp,s1,a3
   126c4:	00d4823b          	addw	tp,s1,a3
   126c8:	00d4823b          	addw	tp,s1,a3
   126cc:	00d4823b          	addw	tp,s1,a3
   126d0:	00d4823b          	addw	tp,s1,a3
   126d4:	00d4823b          	addw	tp,s1,a3
   126d8:	00d4823b          	addw	tp,s1,a3
   126dc:	00d4823b          	addw	tp,s1,a3
   126e0:	00d4823b          	addw	tp,s1,a3
   126e4:	00d4823b          	addw	tp,s1,a3
   126e8:	00d4823b          	addw	tp,s1,a3
   126ec:	00d4823b          	addw	tp,s1,a3
   126f0:	00d4823b          	addw	tp,s1,a3
   126f4:	00d4823b          	addw	tp,s1,a3
   126f8:	00d4823b          	addw	tp,s1,a3
   126fc:	00d4823b          	addw	tp,s1,a3
   12700:	00d4823b          	addw	tp,s1,a3
   12704:	00d4823b          	addw	tp,s1,a3
   12708:	00d4823b          	addw	tp,s1,a3
   1270c:	00d4823b          	addw	tp,s1,a3
   12710:	00d4823b          	addw	tp,s1,a3
   12714:	00d4823b          	addw	tp,s1,a3
   12718:	00d4823b          	addw	tp,s1,a3
   1271c:	00d4823b          	addw	tp,s1,a3
   12720:	00d4823b          	addw	tp,s1,a3
   12724:	00d4823b          	addw	tp,s1,a3
   12728:	00d4823b          	addw	tp,s1,a3
   1272c:	00d4823b          	addw	tp,s1,a3
   12730:	00d4823b          	addw	tp,s1,a3
   12734:	00d4823b          	addw	tp,s1,a3
   12738:	00d4823b          	addw	tp,s1,a3
   1273c:	00d4823b          	addw	tp,s1,a3
   12740:	00d4823b          	addw	tp,s1,a3
   12744:	00d4823b          	addw	tp,s1,a3
   12748:	00d4823b          	addw	tp,s1,a3
   1274c:	00d4823b          	addw	tp,s1,a3
   12750:	00d4823b          	addw	tp,s1,a3
   12754:	00d4823b          	addw	tp,s1,a3
   12758:	00d4823b          	addw	tp,s1,a3
   1275c:	00d4823b          	addw	tp,s1,a3
   12760:	00d4823b          	addw	tp,s1,a3
   12764:	00d4823b          	addw	tp,s1,a3
   12768:	00d4823b          	addw	tp,s1,a3
   1276c:	00d4823b          	addw	tp,s1,a3
   12770:	00d4823b          	addw	tp,s1,a3
   12774:	00d4823b          	addw	tp,s1,a3
   12778:	00d4823b          	addw	tp,s1,a3
   1277c:	00d4823b          	addw	tp,s1,a3
   12780:	00d4823b          	addw	tp,s1,a3
   12784:	00d4823b          	addw	tp,s1,a3
   12788:	00d4823b          	addw	tp,s1,a3
   1278c:	00d4823b          	addw	tp,s1,a3
   12790:	00d4823b          	addw	tp,s1,a3
   12794:	00d4823b          	addw	tp,s1,a3
   12798:	00d4823b          	addw	tp,s1,a3
   1279c:	00d4823b          	addw	tp,s1,a3
   127a0:	00d4823b          	addw	tp,s1,a3
   127a4:	00d4823b          	addw	tp,s1,a3
   127a8:	00d4823b          	addw	tp,s1,a3
   127ac:	00d4823b          	addw	tp,s1,a3
   127b0:	00d4823b          	addw	tp,s1,a3
   127b4:	00d4823b          	addw	tp,s1,a3
   127b8:	00d4823b          	addw	tp,s1,a3
   127bc:	00d4823b          	addw	tp,s1,a3
   127c0:	00d4823b          	addw	tp,s1,a3
   127c4:	00d4823b          	addw	tp,s1,a3
   127c8:	00d4823b          	addw	tp,s1,a3
   127cc:	00d4823b          	addw	tp,s1,a3
   127d0:	00d4823b          	addw	tp,s1,a3
   127d4:	00d4823b          	addw	tp,s1,a3
   127d8:	00d4823b          	addw	tp,s1,a3
   127dc:	00d4823b          	addw	tp,s1,a3
   127e0:	00d4823b          	addw	tp,s1,a3
   127e4:	00d4823b          	addw	tp,s1,a3
   127e8:	00d4823b          	addw	tp,s1,a3
   127ec:	00d4823b          	addw	tp,s1,a3
   127f0:	00d4823b          	addw	tp,s1,a3
   127f4:	00d4823b          	addw	tp,s1,a3
   127f8:	00d4823b          	addw	tp,s1,a3
   127fc:	00d4823b          	addw	tp,s1,a3
   12800:	00d4823b          	addw	tp,s1,a3
   12804:	00d4823b          	addw	tp,s1,a3
   12808:	00d4823b          	addw	tp,s1,a3
   1280c:	00d4823b          	addw	tp,s1,a3
   12810:	00d4823b          	addw	tp,s1,a3
   12814:	00d4823b          	addw	tp,s1,a3
   12818:	00d4823b          	addw	tp,s1,a3
   1281c:	00d4823b          	addw	tp,s1,a3
   12820:	00d4823b          	addw	tp,s1,a3
   12824:	00d4823b          	addw	tp,s1,a3
   12828:	00d4823b          	addw	tp,s1,a3
   1282c:	00d4823b          	addw	tp,s1,a3
   12830:	00d4823b          	addw	tp,s1,a3
   12834:	00d4823b          	addw	tp,s1,a3
   12838:	00d4823b          	addw	tp,s1,a3
   1283c:	00d4823b          	addw	tp,s1,a3
   12840:	00d4823b          	addw	tp,s1,a3
   12844:	00d4823b          	addw	tp,s1,a3
   12848:	00d4823b          	addw	tp,s1,a3
   1284c:	00d4823b          	addw	tp,s1,a3
   12850:	00d4823b          	addw	tp,s1,a3
   12854:	00d4823b          	addw	tp,s1,a3
   12858:	00d4823b          	addw	tp,s1,a3
   1285c:	00d4823b          	addw	tp,s1,a3
   12860:	00d4823b          	addw	tp,s1,a3
   12864:	00d4823b          	addw	tp,s1,a3
   12868:	00d4823b          	addw	tp,s1,a3
   1286c:	00d4823b          	addw	tp,s1,a3
   12870:	00d4823b          	addw	tp,s1,a3
   12874:	00d4823b          	addw	tp,s1,a3
   12878:	00d4823b          	addw	tp,s1,a3
   1287c:	00d4823b          	addw	tp,s1,a3
   12880:	00d4823b          	addw	tp,s1,a3
   12884:	00d4823b          	addw	tp,s1,a3
   12888:	00d4823b          	addw	tp,s1,a3
   1288c:	8082                	ret

000000000001288e <m5_arm>:
   1288e:	0000007b          	0x7b
   12892:	8082                	ret

0000000000012894 <m5_quiesce>:
   12894:	0200007b          	0x200007b
   12898:	8082                	ret

000000000001289a <m5_quiesce_ns>:
   1289a:	0400007b          	0x400007b
   1289e:	8082                	ret

00000000000128a0 <m5_quiesce_cycle>:
   128a0:	0600007b          	0x600007b
   128a4:	8082                	ret

00000000000128a6 <m5_quiesce_time>:
   128a6:	0800007b          	0x800007b
   128aa:	8082                	ret

00000000000128ac <m5_rpns>:
   128ac:	0e00007b          	0xe00007b
   128b0:	8082                	ret

00000000000128b2 <m5_wake_cpu>:
   128b2:	1200007b          	0x1200007b
   128b6:	8082                	ret

00000000000128b8 <m5_exit>:
   128b8:	4200007b          	0x4200007b
   128bc:	8082                	ret

00000000000128be <m5_fail>:
   128be:	4400007b          	0x4400007b
   128c2:	8082                	ret

00000000000128c4 <m5_sum>:
   128c4:	4600007b          	0x4600007b
   128c8:	8082                	ret

00000000000128ca <m5_init_param>:
   128ca:	6000007b          	0x6000007b
   128ce:	8082                	ret

00000000000128d0 <m5_load_symbol>:
   128d0:	6200007b          	0x6200007b
   128d4:	8082                	ret

00000000000128d6 <m5_reset_stats>:
   128d6:	8000007b          	0x8000007b
   128da:	8082                	ret

00000000000128dc <m5_dump_stats>:
   128dc:	8200007b          	0x8200007b
   128e0:	8082                	ret

00000000000128e2 <m5_dump_reset_stats>:
   128e2:	8400007b          	0x8400007b
   128e6:	8082                	ret

00000000000128e8 <m5_checkpoint>:
   128e8:	8600007b          	0x8600007b
   128ec:	8082                	ret

00000000000128ee <m5_write_file>:
   128ee:	9e00007b          	0x9e00007b
   128f2:	8082                	ret

00000000000128f4 <m5_read_file>:
   128f4:	a000007b          	0xa000007b
   128f8:	8082                	ret

00000000000128fa <m5_debug_break>:
   128fa:	a200007b          	0xa200007b
   128fe:	8082                	ret

0000000000012900 <m5_switch_cpu>:
   12900:	a400007b          	0xa400007b
   12904:	8082                	ret

0000000000012906 <m5_add_symbol>:
   12906:	a600007b          	0xa600007b
   1290a:	8082                	ret

000000000001290c <m5_panic>:
   1290c:	a800007b          	0xa800007b
   12910:	8082                	ret

0000000000012912 <m5_work_begin>:
   12912:	b400007b          	0xb400007b
   12916:	8082                	ret

0000000000012918 <m5_work_end>:
   12918:	b600007b          	0xb600007b
   1291c:	8082                	ret

000000000001291e <m5_dist_toggle_sync>:
   1291e:	c400007b          	0xc400007b
   12922:	8082                	ret

0000000000012924 <m5_workload>:
   12924:	e000007b          	0xe000007b
   12928:	8082                	ret

000000000001292a <exit>:
   1292a:	1141                	addi	sp,sp,-16
   1292c:	4581                	li	a1,0
   1292e:	e022                	sd	s0,0(sp)
   12930:	e406                	sd	ra,8(sp)
   12932:	842a                	mv	s0,a0
   12934:	12a000ef          	jal	ra,12a5e <__call_exitprocs>
   12938:	67d1                	lui	a5,0x14
   1293a:	3687b503          	ld	a0,872(a5) # 14368 <_global_impure_ptr>
   1293e:	6d3c                	ld	a5,88(a0)
   12940:	c391                	beqz	a5,12944 <exit+0x1a>
   12942:	9782                	jalr	a5
   12944:	8522                	mv	a0,s0
   12946:	292000ef          	jal	ra,12bd8 <_exit>

000000000001294a <__libc_init_array>:
   1294a:	1101                	addi	sp,sp,-32
   1294c:	e822                	sd	s0,16(sp)
   1294e:	e04a                	sd	s2,0(sp)
   12950:	6451                	lui	s0,0x14
   12952:	6951                	lui	s2,0x14
   12954:	c0440793          	addi	a5,s0,-1020 # 13c04 <__preinit_array_end>
   12958:	c0490913          	addi	s2,s2,-1020 # 13c04 <__preinit_array_end>
   1295c:	40f90933          	sub	s2,s2,a5
   12960:	ec06                	sd	ra,24(sp)
   12962:	e426                	sd	s1,8(sp)
   12964:	40395913          	srai	s2,s2,0x3
   12968:	00090b63          	beqz	s2,1297e <__libc_init_array+0x34>
   1296c:	c0440413          	addi	s0,s0,-1020
   12970:	4481                	li	s1,0
   12972:	601c                	ld	a5,0(s0)
   12974:	0485                	addi	s1,s1,1
   12976:	0421                	addi	s0,s0,8
   12978:	9782                	jalr	a5
   1297a:	fe991ce3          	bne	s2,s1,12972 <__libc_init_array+0x28>
   1297e:	6451                	lui	s0,0x14
   12980:	6951                	lui	s2,0x14
   12982:	c0840793          	addi	a5,s0,-1016 # 13c08 <__init_array_start>
   12986:	c1890913          	addi	s2,s2,-1000 # 13c18 <__do_global_dtors_aux_fini_array_entry>
   1298a:	40f90933          	sub	s2,s2,a5
   1298e:	40395913          	srai	s2,s2,0x3
   12992:	00090b63          	beqz	s2,129a8 <__libc_init_array+0x5e>
   12996:	c0840413          	addi	s0,s0,-1016
   1299a:	4481                	li	s1,0
   1299c:	601c                	ld	a5,0(s0)
   1299e:	0485                	addi	s1,s1,1
   129a0:	0421                	addi	s0,s0,8
   129a2:	9782                	jalr	a5
   129a4:	fe991ce3          	bne	s2,s1,1299c <__libc_init_array+0x52>
   129a8:	60e2                	ld	ra,24(sp)
   129aa:	6442                	ld	s0,16(sp)
   129ac:	64a2                	ld	s1,8(sp)
   129ae:	6902                	ld	s2,0(sp)
   129b0:	6105                	addi	sp,sp,32
   129b2:	8082                	ret

00000000000129b4 <memset>:
   129b4:	433d                	li	t1,15
   129b6:	872a                	mv	a4,a0
   129b8:	02c37163          	bgeu	t1,a2,129da <memset+0x26>
   129bc:	00f77793          	andi	a5,a4,15
   129c0:	e3c1                	bnez	a5,12a40 <memset+0x8c>
   129c2:	e1bd                	bnez	a1,12a28 <memset+0x74>
   129c4:	ff067693          	andi	a3,a2,-16
   129c8:	8a3d                	andi	a2,a2,15
   129ca:	96ba                	add	a3,a3,a4
   129cc:	e30c                	sd	a1,0(a4)
   129ce:	e70c                	sd	a1,8(a4)
   129d0:	0741                	addi	a4,a4,16
   129d2:	fed76de3          	bltu	a4,a3,129cc <memset+0x18>
   129d6:	e211                	bnez	a2,129da <memset+0x26>
   129d8:	8082                	ret
   129da:	40c306b3          	sub	a3,t1,a2
   129de:	068a                	slli	a3,a3,0x2
   129e0:	00000297          	auipc	t0,0x0
   129e4:	9696                	add	a3,a3,t0
   129e6:	00a68067          	jr	10(a3)
   129ea:	00b70723          	sb	a1,14(a4)
   129ee:	00b706a3          	sb	a1,13(a4)
   129f2:	00b70623          	sb	a1,12(a4)
   129f6:	00b705a3          	sb	a1,11(a4)
   129fa:	00b70523          	sb	a1,10(a4)
   129fe:	00b704a3          	sb	a1,9(a4)
   12a02:	00b70423          	sb	a1,8(a4)
   12a06:	00b703a3          	sb	a1,7(a4)
   12a0a:	00b70323          	sb	a1,6(a4)
   12a0e:	00b702a3          	sb	a1,5(a4)
   12a12:	00b70223          	sb	a1,4(a4)
   12a16:	00b701a3          	sb	a1,3(a4)
   12a1a:	00b70123          	sb	a1,2(a4)
   12a1e:	00b700a3          	sb	a1,1(a4)
   12a22:	00b70023          	sb	a1,0(a4)
   12a26:	8082                	ret
   12a28:	0ff5f593          	zext.b	a1,a1
   12a2c:	00859693          	slli	a3,a1,0x8
   12a30:	8dd5                	or	a1,a1,a3
   12a32:	01059693          	slli	a3,a1,0x10
   12a36:	8dd5                	or	a1,a1,a3
   12a38:	02059693          	slli	a3,a1,0x20
   12a3c:	8dd5                	or	a1,a1,a3
   12a3e:	b759                	j	129c4 <memset+0x10>
   12a40:	00279693          	slli	a3,a5,0x2
   12a44:	00000297          	auipc	t0,0x0
   12a48:	9696                	add	a3,a3,t0
   12a4a:	8286                	mv	t0,ra
   12a4c:	fa2680e7          	jalr	-94(a3)
   12a50:	8096                	mv	ra,t0
   12a52:	17c1                	addi	a5,a5,-16
   12a54:	8f1d                	sub	a4,a4,a5
   12a56:	963e                	add	a2,a2,a5
   12a58:	f8c371e3          	bgeu	t1,a2,129da <memset+0x26>
   12a5c:	b79d                	j	129c2 <memset+0xe>

0000000000012a5e <__call_exitprocs>:
   12a5e:	715d                	addi	sp,sp,-80
   12a60:	67d1                	lui	a5,0x14
   12a62:	f052                	sd	s4,32(sp)
   12a64:	3687ba03          	ld	s4,872(a5) # 14368 <_global_impure_ptr>
   12a68:	f84a                	sd	s2,48(sp)
   12a6a:	e486                	sd	ra,72(sp)
   12a6c:	1f8a3903          	ld	s2,504(s4)
   12a70:	e0a2                	sd	s0,64(sp)
   12a72:	fc26                	sd	s1,56(sp)
   12a74:	f44e                	sd	s3,40(sp)
   12a76:	ec56                	sd	s5,24(sp)
   12a78:	e85a                	sd	s6,16(sp)
   12a7a:	e45e                	sd	s7,8(sp)
   12a7c:	e062                	sd	s8,0(sp)
   12a7e:	02090863          	beqz	s2,12aae <__call_exitprocs+0x50>
   12a82:	8b2a                	mv	s6,a0
   12a84:	8bae                	mv	s7,a1
   12a86:	4a85                	li	s5,1
   12a88:	59fd                	li	s3,-1
   12a8a:	00892483          	lw	s1,8(s2)
   12a8e:	fff4841b          	addiw	s0,s1,-1
   12a92:	00044e63          	bltz	s0,12aae <__call_exitprocs+0x50>
   12a96:	048e                	slli	s1,s1,0x3
   12a98:	94ca                	add	s1,s1,s2
   12a9a:	020b8663          	beqz	s7,12ac6 <__call_exitprocs+0x68>
   12a9e:	2084b783          	ld	a5,520(s1)
   12aa2:	03778263          	beq	a5,s7,12ac6 <__call_exitprocs+0x68>
   12aa6:	347d                	addiw	s0,s0,-1
   12aa8:	14e1                	addi	s1,s1,-8
   12aaa:	ff3418e3          	bne	s0,s3,12a9a <__call_exitprocs+0x3c>
   12aae:	60a6                	ld	ra,72(sp)
   12ab0:	6406                	ld	s0,64(sp)
   12ab2:	74e2                	ld	s1,56(sp)
   12ab4:	7942                	ld	s2,48(sp)
   12ab6:	79a2                	ld	s3,40(sp)
   12ab8:	7a02                	ld	s4,32(sp)
   12aba:	6ae2                	ld	s5,24(sp)
   12abc:	6b42                	ld	s6,16(sp)
   12abe:	6ba2                	ld	s7,8(sp)
   12ac0:	6c02                	ld	s8,0(sp)
   12ac2:	6161                	addi	sp,sp,80
   12ac4:	8082                	ret
   12ac6:	00892783          	lw	a5,8(s2)
   12aca:	6498                	ld	a4,8(s1)
   12acc:	37fd                	addiw	a5,a5,-1
   12ace:	04878463          	beq	a5,s0,12b16 <__call_exitprocs+0xb8>
   12ad2:	0004b423          	sd	zero,8(s1)
   12ad6:	db61                	beqz	a4,12aa6 <__call_exitprocs+0x48>
   12ad8:	31092783          	lw	a5,784(s2)
   12adc:	008a96bb          	sllw	a3,s5,s0
   12ae0:	00892c03          	lw	s8,8(s2)
   12ae4:	8ff5                	and	a5,a5,a3
   12ae6:	2781                	sext.w	a5,a5
   12ae8:	ef89                	bnez	a5,12b02 <__call_exitprocs+0xa4>
   12aea:	9702                	jalr	a4
   12aec:	00892703          	lw	a4,8(s2)
   12af0:	1f8a3783          	ld	a5,504(s4)
   12af4:	01871463          	bne	a4,s8,12afc <__call_exitprocs+0x9e>
   12af8:	fb2787e3          	beq	a5,s2,12aa6 <__call_exitprocs+0x48>
   12afc:	dbcd                	beqz	a5,12aae <__call_exitprocs+0x50>
   12afe:	893e                	mv	s2,a5
   12b00:	b769                	j	12a8a <__call_exitprocs+0x2c>
   12b02:	31492783          	lw	a5,788(s2)
   12b06:	1084b583          	ld	a1,264(s1)
   12b0a:	8ff5                	and	a5,a5,a3
   12b0c:	2781                	sext.w	a5,a5
   12b0e:	e799                	bnez	a5,12b1c <__call_exitprocs+0xbe>
   12b10:	855a                	mv	a0,s6
   12b12:	9702                	jalr	a4
   12b14:	bfe1                	j	12aec <__call_exitprocs+0x8e>
   12b16:	00892423          	sw	s0,8(s2)
   12b1a:	bf75                	j	12ad6 <__call_exitprocs+0x78>
   12b1c:	852e                	mv	a0,a1
   12b1e:	9702                	jalr	a4
   12b20:	b7f1                	j	12aec <__call_exitprocs+0x8e>

0000000000012b22 <atexit>:
   12b22:	85aa                	mv	a1,a0
   12b24:	4681                	li	a3,0
   12b26:	4601                	li	a2,0
   12b28:	4501                	li	a0,0
   12b2a:	a81d                	j	12b60 <__register_exitproc>

0000000000012b2c <__libc_fini_array>:
   12b2c:	1101                	addi	sp,sp,-32
   12b2e:	e822                	sd	s0,16(sp)
   12b30:	67d1                	lui	a5,0x14
   12b32:	6451                	lui	s0,0x14
   12b34:	c1878793          	addi	a5,a5,-1000 # 13c18 <__do_global_dtors_aux_fini_array_entry>
   12b38:	c2040413          	addi	s0,s0,-992 # 13c20 <impure_data>
   12b3c:	8c1d                	sub	s0,s0,a5
   12b3e:	e426                	sd	s1,8(sp)
   12b40:	ec06                	sd	ra,24(sp)
   12b42:	40345493          	srai	s1,s0,0x3
   12b46:	c881                	beqz	s1,12b56 <__libc_fini_array+0x2a>
   12b48:	1461                	addi	s0,s0,-8
   12b4a:	943e                	add	s0,s0,a5
   12b4c:	601c                	ld	a5,0(s0)
   12b4e:	14fd                	addi	s1,s1,-1
   12b50:	1461                	addi	s0,s0,-8
   12b52:	9782                	jalr	a5
   12b54:	fce5                	bnez	s1,12b4c <__libc_fini_array+0x20>
   12b56:	60e2                	ld	ra,24(sp)
   12b58:	6442                	ld	s0,16(sp)
   12b5a:	64a2                	ld	s1,8(sp)
   12b5c:	6105                	addi	sp,sp,32
   12b5e:	8082                	ret

0000000000012b60 <__register_exitproc>:
   12b60:	67d1                	lui	a5,0x14
   12b62:	3687b703          	ld	a4,872(a5) # 14368 <_global_impure_ptr>
   12b66:	1f873783          	ld	a5,504(a4)
   12b6a:	c3b1                	beqz	a5,12bae <__register_exitproc+0x4e>
   12b6c:	4798                	lw	a4,8(a5)
   12b6e:	487d                	li	a6,31
   12b70:	06e84263          	blt	a6,a4,12bd4 <__register_exitproc+0x74>
   12b74:	c505                	beqz	a0,12b9c <__register_exitproc+0x3c>
   12b76:	00371813          	slli	a6,a4,0x3
   12b7a:	983e                	add	a6,a6,a5
   12b7c:	10c83823          	sd	a2,272(a6)
   12b80:	3107a883          	lw	a7,784(a5)
   12b84:	4605                	li	a2,1
   12b86:	00e6163b          	sllw	a2,a2,a4
   12b8a:	00c8e8b3          	or	a7,a7,a2
   12b8e:	3117a823          	sw	a7,784(a5)
   12b92:	20d83823          	sd	a3,528(a6)
   12b96:	4689                	li	a3,2
   12b98:	02d50063          	beq	a0,a3,12bb8 <__register_exitproc+0x58>
   12b9c:	00270693          	addi	a3,a4,2
   12ba0:	068e                	slli	a3,a3,0x3
   12ba2:	2705                	addiw	a4,a4,1
   12ba4:	c798                	sw	a4,8(a5)
   12ba6:	97b6                	add	a5,a5,a3
   12ba8:	e38c                	sd	a1,0(a5)
   12baa:	4501                	li	a0,0
   12bac:	8082                	ret
   12bae:	20070793          	addi	a5,a4,512
   12bb2:	1ef73c23          	sd	a5,504(a4)
   12bb6:	bf5d                	j	12b6c <__register_exitproc+0xc>
   12bb8:	3147a683          	lw	a3,788(a5)
   12bbc:	4501                	li	a0,0
   12bbe:	8ed1                	or	a3,a3,a2
   12bc0:	30d7aa23          	sw	a3,788(a5)
   12bc4:	00270693          	addi	a3,a4,2
   12bc8:	068e                	slli	a3,a3,0x3
   12bca:	2705                	addiw	a4,a4,1
   12bcc:	c798                	sw	a4,8(a5)
   12bce:	97b6                	add	a5,a5,a3
   12bd0:	e38c                	sd	a1,0(a5)
   12bd2:	8082                	ret
   12bd4:	557d                	li	a0,-1
   12bd6:	8082                	ret

0000000000012bd8 <_exit>:
   12bd8:	05d00893          	li	a7,93
   12bdc:	00000073          	ecall
   12be0:	00054363          	bltz	a0,12be6 <_exit+0xe>
   12be4:	a001                	j	12be4 <_exit+0xc>
   12be6:	1141                	addi	sp,sp,-16
   12be8:	e022                	sd	s0,0(sp)
   12bea:	842a                	mv	s0,a0
   12bec:	e406                	sd	ra,8(sp)
   12bee:	4080043b          	negw	s0,s0
   12bf2:	008000ef          	jal	ra,12bfa <__errno>
   12bf6:	c100                	sw	s0,0(a0)
   12bf8:	a001                	j	12bf8 <_exit+0x20>

0000000000012bfa <__errno>:
   12bfa:	8101b503          	ld	a0,-2032(gp) # 14378 <_impure_ptr>
   12bfe:	8082                	ret
